
puzzle2.elf:     file format elf32-littlenios2
puzzle2.elf
architecture: nios2:r1, flags 0x00000112:
EXEC_P, HAS_SYMS, D_PAGED
start address 0x00010180

Program Header:
    LOAD off    0x00001000 vaddr 0x00010000 paddr 0x00010000 align 2**12
         filesz 0x00000020 memsz 0x00000020 flags r-x
    LOAD off    0x00001020 vaddr 0x00010020 paddr 0x00010020 align 2**12
         filesz 0x0000d774 memsz 0x0000d774 flags r-x
    LOAD off    0x0000e794 vaddr 0x0001d794 paddr 0x0001e104 align 2**12
         filesz 0x00000970 memsz 0x00000970 flags rw-
    LOAD off    0x0000fa74 vaddr 0x0001ea74 paddr 0x0001ea74 align 2**12
         filesz 0x00000000 memsz 0x000004cc flags rw-

Sections:
Idx Name          Size      VMA       LMA       File off  Algn
  0 .entry        00000020  00010000  00010000  00001000  2**5
                  CONTENTS, ALLOC, LOAD, READONLY, CODE
  1 .exceptions   00000160  00010020  00010020  00001020  2**2
                  CONTENTS, ALLOC, LOAD, READONLY, CODE
  2 .text         0000d290  00010180  00010180  00001180  2**2
                  CONTENTS, ALLOC, LOAD, READONLY, CODE
  3 .rodata       00000384  0001d410  0001d410  0000e410  2**2
                  CONTENTS, ALLOC, LOAD, READONLY, DATA
  4 .rwdata       00000970  0001d794  0001e104  0000e794  2**2
                  CONTENTS, ALLOC, LOAD, DATA, SMALL_DATA
  5 .bss          000004cc  0001ea74  0001ea74  0000fa74  2**2
                  ALLOC, SMALL_DATA
  6 .onchip_memory 00000000  0001ef40  0001ef40  0000f104  2**0
                  CONTENTS
  7 .comment      00000023  00000000  00000000  0000f104  2**0
                  CONTENTS, READONLY
  8 .debug_aranges 000009c0  00000000  00000000  0000f128  2**3
                  CONTENTS, READONLY, DEBUGGING
  9 .debug_info   000147f2  00000000  00000000  0000fae8  2**0
                  CONTENTS, READONLY, DEBUGGING
 10 .debug_abbrev 00005645  00000000  00000000  000242da  2**0
                  CONTENTS, READONLY, DEBUGGING
 11 .debug_line   00007ab2  00000000  00000000  0002991f  2**0
                  CONTENTS, READONLY, DEBUGGING
 12 .debug_frame  0000138c  00000000  00000000  000313d4  2**2
                  CONTENTS, READONLY, DEBUGGING
 13 .debug_str    000031de  00000000  00000000  00032760  2**0
                  CONTENTS, READONLY, DEBUGGING
 14 .debug_loc    00016e89  00000000  00000000  0003593e  2**0
                  CONTENTS, READONLY, DEBUGGING
 15 .debug_alt_sim_info 00000010  00000000  00000000  0004c7c8  2**2
                  CONTENTS, READONLY, DEBUGGING
 16 .debug_ranges 000014f8  00000000  00000000  0004c7d8  2**3
                  CONTENTS, READONLY, DEBUGGING
 17 .thread_model 00000003  00000000  00000000  000505fe  2**0
                  CONTENTS, READONLY
 18 .cpu          00000003  00000000  00000000  00050601  2**0
                  CONTENTS, READONLY
 19 .qsys         00000001  00000000  00000000  00050604  2**0
                  CONTENTS, READONLY
 20 .simulation_enabled 00000001  00000000  00000000  00050605  2**0
                  CONTENTS, READONLY
 21 .sysid_hash   00000004  00000000  00000000  00050606  2**0
                  CONTENTS, READONLY
 22 .sysid_base   00000004  00000000  00000000  0005060a  2**0
                  CONTENTS, READONLY
 23 .sysid_time   00000004  00000000  00000000  0005060e  2**0
                  CONTENTS, READONLY
 24 .stderr_dev   00000009  00000000  00000000  00050612  2**0
                  CONTENTS, READONLY
 25 .stdin_dev    00000009  00000000  00000000  0005061b  2**0
                  CONTENTS, READONLY
 26 .stdout_dev   00000009  00000000  00000000  00050624  2**0
                  CONTENTS, READONLY
 27 .sopc_system_name 0000000c  00000000  00000000  0005062d  2**0
                  CONTENTS, READONLY
 28 .quartus_project_dir 00000023  00000000  00000000  00050639  2**0
                  CONTENTS, READONLY
 29 .jdi          00004a13  00000000  00000000  0005065c  2**0
                  CONTENTS, READONLY
 30 .sopcinfo     000717fd  00000000  00000000  0005506f  2**0
                  CONTENTS, READONLY
SYMBOL TABLE:
00010000 l    d  .entry	00000000 .entry
00010020 l    d  .exceptions	00000000 .exceptions
00010180 l    d  .text	00000000 .text
0001d410 l    d  .rodata	00000000 .rodata
0001d794 l    d  .rwdata	00000000 .rwdata
0001ea74 l    d  .bss	00000000 .bss
0001ef40 l    d  .onchip_memory	00000000 .onchip_memory
00000000 l    d  .comment	00000000 .comment
00000000 l    d  .debug_aranges	00000000 .debug_aranges
00000000 l    d  .debug_info	00000000 .debug_info
00000000 l    d  .debug_abbrev	00000000 .debug_abbrev
00000000 l    d  .debug_line	00000000 .debug_line
00000000 l    d  .debug_frame	00000000 .debug_frame
00000000 l    d  .debug_str	00000000 .debug_str
00000000 l    d  .debug_loc	00000000 .debug_loc
00000000 l    d  .debug_alt_sim_info	00000000 .debug_alt_sim_info
00000000 l    d  .debug_ranges	00000000 .debug_ranges
00000000 l    df *ABS*	00000000 ../puzzle2_bsp//obj/HAL/src/crt0.o
000101b8 l       .text	00000000 alt_after_alt_main
00000000 l    df *ABS*	00000000 alt_irq_handler.c
00000000 l    df *ABS*	00000000 alt_instruction_exception_entry.c
00000000 l    df *ABS*	00000000 DE_seven_segment_display.c
0001d46c l     O .rodata	0000002b CSWTCH.28
0001eb04 l     O .bss	00000014 filter_x.3939
0001eaf0 l     O .bss	00000014 filter_y.3940
0001d498 l     O .rodata	00000028 h.3938
00000000 l    df *ABS*	00000000 lib2-divmod.c
00000000 l    df *ABS*	00000000 adddf3.c
00000000 l    df *ABS*	00000000 muldf3.c
00000000 l    df *ABS*	00000000 fixdfsi.c
00000000 l    df *ABS*	00000000 floatsidf.c
00000000 l    df *ABS*	00000000 libgcc2.c
00000000 l    df *ABS*	00000000 lib2-mul.c
00000000 l    df *ABS*	00000000 libgcc2.c
00000000 l    df *ABS*	00000000 asprintf.c
00000000 l    df *ABS*	00000000 impure.c
0001d794 l     O .rwdata	00000424 impure_data
00000000 l    df *ABS*	00000000 malloc.c
00000000 l    df *ABS*	00000000 mallocr.c
00000000 l    df *ABS*	00000000 memset.c
00000000 l    df *ABS*	00000000 sbrkr.c
00000000 l    df *ABS*	00000000 sprintf.c
00000000 l    df *ABS*	00000000 strchr.c
00000000 l    df *ABS*	00000000 strcpy.c
00000000 l    df *ABS*	00000000 strstr.c
00012fdc l     F .text	00000104 critical_factorization
000130e0 l     F .text	000003b0 two_way_long_needle
00000000 l    df *ABS*	00000000 vfprintf.c
0001d606 l     O .rodata	00000010 zeroes.4389
0001d616 l     O .rodata	00000010 blanks.4388
00000000 l    df *ABS*	00000000 dtoa.c
00015afc l     F .text	00000228 quorem
00000000 l    df *ABS*	00000000 mallocr.c
00000000 l    df *ABS*	00000000 int_errno.c
00000000 l    df *ABS*	00000000 locale.c
0001dfe0 l     O .rwdata	00000020 lc_ctype_charset
0001dfc0 l     O .rwdata	00000020 lc_message_charset
0001e000 l     O .rwdata	00000038 lconv
00000000 l    df *ABS*	00000000 memchr.c
00000000 l    df *ABS*	00000000 memcmp.c
00000000 l    df *ABS*	00000000 memcpy.c
00000000 l    df *ABS*	00000000 mprec.c
0001d644 l     O .rodata	0000000c p05.2768
00000000 l    df *ABS*	00000000 s_fpclassify.c
00000000 l    df *ABS*	00000000 strcmp.c
00000000 l    df *ABS*	00000000 strlen.c
00000000 l    df *ABS*	00000000 vfprintf.c
0001d768 l     O .rodata	00000010 zeroes.4333
0001d778 l     O .rodata	00000010 blanks.4332
00000000 l    df *ABS*	00000000 mallocr.c
00000000 l    df *ABS*	00000000 memmove.c
00000000 l    df *ABS*	00000000 mallocr.c
00000000 l    df *ABS*	00000000 libgcc2.c
00000000 l    df *ABS*	00000000 libgcc2.c
00000000 l    df *ABS*	00000000 divdf3.c
00000000 l    df *ABS*	00000000 eqdf2.c
00000000 l    df *ABS*	00000000 gedf2.c
00000000 l    df *ABS*	00000000 ledf2.c
00000000 l    df *ABS*	00000000 subdf3.c
00000000 l    df *ABS*	00000000 floatunsidf.c
00000000 l    df *ABS*	00000000 alt_getchar.c
00000000 l    df *ABS*	00000000 alt_irq_register.c
00000000 l    df *ABS*	00000000 alt_irq_vars.c
00000000 l    df *ABS*	00000000 alt_load.c
00000000 l    df *ABS*	00000000 alt_main.c
00000000 l    df *ABS*	00000000 alt_malloc_lock.c
00000000 l    df *ABS*	00000000 alt_putstr.c
00000000 l    df *ABS*	00000000 alt_sbrk.c
0001e0dc l     O .rwdata	00000004 heap_end
00000000 l    df *ABS*	00000000 alt_sys_init.c
0001e038 l     O .rwdata	0000002c accelerometer_spi
00000000 l    df *ABS*	00000000 altera_avalon_jtag_uart_read.c
00000000 l    df *ABS*	00000000 altera_avalon_jtag_uart_write.c
00000000 l    df *ABS*	00000000 altera_avalon_timer_sc.c
0001cff4 l     F .text	0000003c alt_avalon_timer_sc_irq
00000000 l    df *ABS*	00000000 altera_up_avalon_accelerometer_spi.c
00000000 l    df *ABS*	00000000 alt_dcache_flush_all.c
00000000 l    df *ABS*	00000000 alt_dev.c
0001d1bc l     F .text	00000008 alt_dev_null_write
00000000 l    df *ABS*	00000000 alt_dev_llist_insert.c
00000000 l    df *ABS*	00000000 alt_errno.c
00000000 l    df *ABS*	00000000 alt_find_dev.c
00000000 l    df *ABS*	00000000 alt_icache_flush_all.c
00000000 l    df *ABS*	00000000 alt_tick.c
00000000 l    df *ABS*	00000000 altera_nios2_gen2_irq.c
0001eaec g     O .bss	00000004 alt_instruction_exception_handler
00018aa4 g     F .text	00000074 _mprec_log10
00018b90 g     F .text	0000008c __any_on
0001d650 g     O .rodata	00000028 __mprec_tinytens
0001ce54 g     F .text	0000002c alt_main
00012f4c g     F .text	00000090 strcpy
00010494 g     F .text	00000014 led_write
0001ee40 g     O .bss	00000100 alt_irq
0001e104 g       *ABS*	00000000 __flash_rwdata_start
0001c0a0 g     F .text	00000088 .hidden __eqdf2
0001ea78 g     O .bss	00000004 pause
00010704 g     F .text	00000054 print
0001ef40 g       *ABS*	00000000 __alt_heap_start
0001ea7c g     O .bss	00000004 dancing
0001023c g     F .text	00000044 print_data
0001ea80 g     O .bss	00000004 disp_off
000177e0 g     F .text	0000007c _setlocale_r
0001ce84 g     F .text	00000004 __malloc_unlock
0001a450 g     F .text	0000015c memmove
00017b64 g     F .text	000000a8 _Balloc
0001e0c0 g     O .rwdata	00000004 timer
0001ea84 g     O .bss	00000004 reverse
000101bc g     F .text	00000080 sys_timer_isr
0001044c g     F .text	00000048 read_chars
0001ce88 g     F .text	00000038 alt_putstr
0001c128 g     F .text	000000dc .hidden __gtdf2
0001e0e0 g     O .rwdata	00000004 jtag_uart
0001d394 g     F .text	00000008 altera_nios2_gen2_irq_init
00010000 g     F .entry	0000000c __reset
0001d0b0 g     F .text	00000058 alt_up_accelerometer_spi_read_x_axis
00010020 g       *ABS*	00000000 __flash_exceptions_start
0001eac4 g     O .bss	00000004 errno
00018fd4 g     F .text	000013a0 ___svfiprintf_internal_r
0001eadc g     O .bss	00000004 alt_argv
000260bc g       *ABS*	00000000 _gp
000102d0 g     F .text	000000b4 generate_text
0001e064 g     O .rwdata	00000030 alt_fd_list
0001d230 g     F .text	00000074 alt_find_dev
00017a1c g     F .text	00000148 memcpy
00012130 g     F .text	000000dc .hidden __floatsidf
0001c204 g     F .text	000000f4 .hidden __ltdf2
0001ea88 g     O .bss	00000001 prevLetter
0001d39c g     F .text	00000074 alt_exception_cause_generated_bad_addr
00018c1c g     F .text	00000074 __fpclassifyd
00018a00 g     F .text	000000a4 __ratio
0001cf64 g     F .text	0000005c altera_avalon_jtag_uart_read
00012374 g     F .text	00000014 malloc
00010edc g     F .text	00000064 .hidden __udivsi3
00010628 g     F .text	00000054 getBinLow
0001d6a0 g     O .rodata	000000c8 __mprec_tens
0001785c g     F .text	0000000c __locale_charset
0001eac0 g     O .bss	00000004 __malloc_top_pad
0001ea8c g     O .bss	00000004 flag
0001e0d4 g     O .rwdata	00000004 __mb_cur_max
0001788c g     F .text	0000000c _localeconv_r
0001ea90 g     O .bss	00000004 length
00017f98 g     F .text	0000003c __i2b
00012cd0 g     F .text	00000054 _sbrk_r
0001e0e4 g     O .rwdata	00000004 alt_max_fd
0001eabc g     O .bss	00000004 __malloc_max_sbrked_mem
0001cce0 g     F .text	00000094 alt_irq_register
00010f98 g     F .text	000008ac .hidden __adddf3
000187a8 g     F .text	0000010c __b2d
0001b10c g     F .text	000005c4 .hidden __umoddi3
0001e0c4 g     O .rwdata	00000004 _global_impure_ptr
0001a5ac g     F .text	00000564 _realloc_r
0001ef40 g       *ABS*	00000000 __bss_end
0001cc9c g     F .text	00000044 alt_getchar
0001d2dc g     F .text	000000b8 alt_tick
000105f4 g     F .text	00000034 getBinLowLow
0001ab10 g     F .text	000005fc .hidden __udivdi3
0001d678 g     O .rodata	00000028 __mprec_bigtens
00017d7c g     F .text	00000104 __s2b
0001cbf4 g     F .text	000000a8 .hidden __floatunsidf
000184e8 g     F .text	00000060 __mcmp
0001d2a8 g     F .text	00000034 alt_alarm_stop
0001ead4 g     O .bss	00000004 alt_irq_active
000100fc g     F .exceptions	00000060 alt_irq_handler
0001e094 g     O .rwdata	00000028 alt_dev_null
0001d1b8 g     F .text	00000004 alt_dcache_flush_all
00017e80 g     F .text	00000068 __hi0bits
000120b0 g     F .text	00000080 .hidden __fixdfsi
0001e104 g       *ABS*	00000000 __ram_rwdata_end
000104dc g     F .text	00000070 timer_init
00010000 g       *ABS*	00000000 __alt_mem_onchip_memory
00010758 g     F .text	00000280 print_letters
0001e0e8 g     O .rwdata	00000008 alt_dev_list
0001eb40 g     O .bss	00000200 text
0001ea94 g     O .bss	00000004 dance_dir
0001d794 g       *ABS*	00000000 __ram_rodata_end
0001c204 g     F .text	000000f4 .hidden __ledf2
00018260 g     F .text	00000140 __pow5mult
0001ea98 g     O .bss	00000001 led
0001ead0 g     O .bss	00000004 __nlocale_changed
00010f40 g     F .text	00000058 .hidden __umodsi3
0001ef40 g       *ABS*	00000000 end
0001015c g     F .exceptions	00000024 alt_instruction_exception_entry
00020000 g       *ABS*	00000000 __alt_stack_pointer
0001d030 g     F .text	00000028 alt_avalon_timer_sc_init
0001220c g     F .text	00000064 .hidden __clzsi2
0001cfc0 g     F .text	00000034 altera_avalon_jtag_uart_write
00010384 g     F .text	000000c8 interpret_command
00012298 g     F .text	00000064 _asprintf_r
000178bc g     F .text	000000e4 memchr
00012d24 g     F .text	00000058 _sprintf_r
000174d0 g     F .text	00000310 _free_r
00017868 g     F .text	00000010 __locale_mb_cur_max
0001eacc g     O .bss	00000004 __mlocale_changed
0001e0cc g     O .rwdata	00000004 __malloc_sbrk_base
00010180 g     F .text	0000003c _start
0001ea9c g     O .bss	00000004 level
0001eae8 g     O .bss	00000004 _alt_tick_rate
00013490 g     F .text	000003b0 strstr
000183a0 g     F .text	00000148 __lshift
0001eae4 g     O .bss	00000004 _alt_nticks
0001cf2c g     F .text	00000038 alt_sys_init
0001d060 g     F .text	00000014 alt_up_accelerometer_spi_read_address_register
00018e04 g     F .text	000001d0 __ssprint_r
00017fd4 g     F .text	0000028c __multiply
00012270 g     F .text	00000028 .hidden __mulsi3
0001d794 g       *ABS*	00000000 __ram_rwdata_start
0001d410 g       *ABS*	00000000 __ram_rodata_start
0001eb18 g     O .bss	00000028 __malloc_current_mallinfo
000188b4 g     F .text	0000014c __d2b
0001d108 g     F .text	00000058 alt_up_accelerometer_spi_read_y_axis
0001eaa0 g     O .bss	00000004 slowdown_toggle
000179a0 g     F .text	0000007c memcmp
0001ef40 g       *ABS*	00000000 __alt_stack_base
00010578 g     F .text	0000007c getBinaryLetter
0001b6d0 g     F .text	000009d0 .hidden __divdf3
00018b18 g     F .text	00000078 __copybits
0001dbb8 g     O .rwdata	00000408 __malloc_av_
00011844 g     F .text	0000086c .hidden __muldf3
0001d1c4 g     F .text	0000006c alt_dev_llist_insert
0001ce80 g     F .text	00000004 __malloc_lock
0001cec0 g     F .text	0000004c sbrk
00013840 g     F .text	000022bc ___svfprintf_internal_r
0001ed40 g     O .bss	00000100 enteredText
0001a374 g     F .text	000000dc _calloc_r
0001ea74 g       *ABS*	00000000 __bss_start
00012ba8 g     F .text	00000128 memset
000109d8 g     F .text	0000040c main
0001ead8 g     O .bss	00000004 alt_envp
0001eab8 g     O .bss	00000004 __malloc_max_total_mem
00020000 g       *ABS*	00000000 __alt_heap_limit
00015d24 g     F .text	00001688 _dtoa_r
0001239c g     F .text	0000080c _malloc_r
0001e0bc g     O .rwdata	00000004 life
0001e0f8 g     O .rwdata	00000004 alt_errno
00010de4 g     F .text	00000084 .hidden __divsi3
000173ac g     F .text	00000124 _malloc_trim_r
00018c90 g     F .text	000000dc strcmp
0001d410 g       *ABS*	00000000 __flash_rodata_start
0001c0a0 g     F .text	00000088 .hidden __nedf2
0001cf0c g     F .text	00000020 alt_irq_init
00012d7c g     F .text	0000006c sprintf
0001d4c0 g     O .rodata	00000100 .hidden __clz_tab
000122fc g     F .text	00000078 asprintf
0001eac8 g     O .bss	00000004 _PathLocale
00017898 g     F .text	00000018 setlocale
0001e0c8 g     O .rwdata	00000004 _impure_ptr
0001eae0 g     O .bss	00000004 alt_argc
00017884 g     F .text	00000008 __locale_cjk_lang
0001067c g     F .text	00000054 getBinHigh
00010020 g       .exceptions	00000000 alt_irq_entry
00018744 g     F .text	00000064 __ulp
0001ea74 g     O .bss	00000001 pwm
0001eaa4 g     O .bss	00000004 toggle
0001e0f0 g     O .rwdata	00000008 alt_fs_list
0001eaa8 g     O .bss	00000004 speedup_toggle
00010020 g       *ABS*	00000000 __ram_exceptions_start
0001d058 g     F .text	00000008 alt_up_accelerometer_spi_open_dev
000178b0 g     F .text	0000000c localeconv
0001eaac g     O .bss	00000004 upsideDown
0001e104 g       *ABS*	00000000 _edata
0001eab0 g     O .bss	00000004 dance_state
0001ef40 g       *ABS*	00000000 _end
00010180 g       *ABS*	00000000 __ram_exceptions_end
0001e0d0 g     O .rwdata	00000004 __malloc_trim_threshold
00017878 g     F .text	0000000c __locale_msgcharset
00018548 g     F .text	000001fc __mdiff
00010e68 g     F .text	00000074 .hidden __modsi3
0001d160 g     F .text	00000058 alt_up_accelerometer_spi_read_z_axis
00020000 g       *ABS*	00000000 __alt_data_end
00010020 g     F .exceptions	00000000 alt_exception
000106d0 g     F .text	00000034 getBinHighHigh
000104a8 g     F .text	00000034 convert_read
0001000c g       .entry	00000000 _exit
0001d074 g     F .text	00000020 alt_up_accelerometer_spi_read
0001d094 g     F .text	0000001c alt_up_accelerometer_spi_write
0001054c g     F .text	0000002c getBin
00018d6c g     F .text	00000098 strlen
0001c128 g     F .text	000000dc .hidden __gedf2
0001d2a4 g     F .text	00000004 alt_icache_flush_all
00012de8 g     F .text	00000164 strchr
0001e0d8 g     O .rwdata	00000004 alt_priority_mask
0001eab4 g     O .bss	00000004 re_enter
0001c2f8 g     F .text	000008fc .hidden __subdf3
00017ee8 g     F .text	000000b0 __lo0bits
0001e0fc g     O .rwdata	00000008 alt_alarm_list
00010280 g     F .text	00000050 send_text
0001cd74 g     F .text	000000e0 alt_load
00012388 g     F .text	00000014 free
00017c34 g     F .text	00000148 __multadd
00017c0c g     F .text	00000028 _Bfree



Disassembly of section .entry:

00010000 <__reset>:
 * Jump to the _start entry point in the .text section if reset code
 * is allowed or if optimizing for RTL simulation.
 */
#if defined(ALT_ALLOW_CODE_AT_RESET) || defined(ALT_SIM_OPTIMIZE)
    /* Jump to the _start entry point in the .text section. */
    movhi r1, %hi(_start)
   10000:	00400074 	movhi	at,1
    ori r1, r1, %lo(_start)
   10004:	08406014 	ori	at,at,384
    jmp r1
   10008:	0800683a 	jmp	at

0001000c <_exit>:
	...

Disassembly of section .exceptions:

00010020 <alt_exception>:

#else /* ALT_EXCEPTION_STACK disabled */
        /* 
         * Reserve space on normal stack for registers about to be pushed.
         */
        addi  sp, sp, -76
   10020:	deffed04 	addi	sp,sp,-76
         * documentation for details).
         *
         * Leave a gap in the stack frame at 4(sp) for the muldiv handler to
         * store zero into.
         */
        stw   ra,  0(sp)
   10024:	dfc00015 	stw	ra,0(sp)
        stw   r1,   8(sp)
   10028:	d8400215 	stw	at,8(sp)
        stw   r2,  12(sp)
   1002c:	d8800315 	stw	r2,12(sp)
        stw   r3,  16(sp)
   10030:	d8c00415 	stw	r3,16(sp)
        stw   r4,  20(sp)
   10034:	d9000515 	stw	r4,20(sp)
        stw   r5,  24(sp)
   10038:	d9400615 	stw	r5,24(sp)
        stw   r6,  28(sp)
   1003c:	d9800715 	stw	r6,28(sp)
        stw   r7,  32(sp)
   10040:	d9c00815 	stw	r7,32(sp)
        rdctl r5, estatus   /* Read early to avoid usage stall */
   10044:	000b307a 	rdctl	r5,estatus
        stw   r8,  36(sp)
   10048:	da000915 	stw	r8,36(sp)
        stw   r9,  40(sp)
   1004c:	da400a15 	stw	r9,40(sp)
        stw   r10, 44(sp)
   10050:	da800b15 	stw	r10,44(sp)
        stw   r11, 48(sp)
   10054:	dac00c15 	stw	r11,48(sp)
        stw   r12, 52(sp)
   10058:	db000d15 	stw	r12,52(sp)
        stw   r13, 56(sp)
   1005c:	db400e15 	stw	r13,56(sp)
        stw   r14, 60(sp)
   10060:	db800f15 	stw	r14,60(sp)
        stw   r15, 64(sp)
   10064:	dbc01015 	stw	r15,64(sp)
        /*
         * ea-4 contains the address of the instruction being executed
         * when the exception occured. For interrupt exceptions, we will
         * will be re-issue the isntruction. Store it in 72(sp)
         */
        stw   r5,  68(sp)  /* estatus */
   10068:	d9401115 	stw	r5,68(sp)
        addi  r15, ea, -4  /* instruction that caused exception */
   1006c:	ebffff04 	addi	r15,ea,-4
        stw   r15,  72(sp)
   10070:	dbc01215 	stw	r15,72(sp)
#else
        /*
         * Test to see if the exception was a software exception or caused 
         * by an external interrupt, and vector accordingly.
         */
        rdctl r4, ipending
   10074:	0009313a 	rdctl	r4,ipending
        andi  r2, r5, 1
   10078:	2880004c 	andi	r2,r5,1
        beq   r2, zero, .Lnot_irq
   1007c:	10000326 	beq	r2,zero,1008c <alt_exception+0x6c>
        beq   r4, zero, .Lnot_irq
   10080:	20000226 	beq	r4,zero,1008c <alt_exception+0x6c>
        /*
         * Now that all necessary registers have been preserved, call 
         * alt_irq_handler() to process the interrupts.
         */

        call alt_irq_handler
   10084:	00100fc0 	call	100fc <alt_irq_handler>

        .section .exceptions.irqreturn, "xa"

        br    .Lexception_exit
   10088:	00000706 	br	100a8 <alt_exception+0x88>
         * upon completion, so we write ea (address of instruction *after*
         * the one where the exception occured) into 72(sp). The actual
         * instruction that caused the exception is written in r2, which these
         * handlers will utilize.
         */
        stw ea, 72(sp) /* EA is PC+4 so will skip over instruction causing exception */
   1008c:	df401215 	stw	ea,72(sp)
.Lunknown_16bit:
        addi.n r4, r4, 2 /* Need PC+2 to skip over instruction causing exception */
        stw r4, 72(sp)

#else /* CDX is not Enabled and all instructions are 32bits */
        ldw r2, -4(ea) /* Instruction value that caused exception */
   10090:	e8bfff17 	ldw	r2,-4(ea)
         * debugger is present) or go into an infinite loop since the
         * handling behavior is undefined; in that case we will not return here.
         */

        /* Load exception-causing address as first argument (r4) */
        addi   r4, ea, -4
   10094:	e93fff04 	addi	r4,ea,-4

        /* Call the instruction-exception entry */
        call   alt_instruction_exception_entry
   10098:	001015c0 	call	1015c <alt_instruction_exception_entry>
         * instruction
         *
         * Return code was 0: Skip. The instruction after the exception is
         * already stored in 72(sp).
         */
        bne   r2, r0, .Lexception_exit
   1009c:	1000021e 	bne	r2,zero,100a8 <alt_exception+0x88>

        /*
         * Otherwise, modify 72(sp) to re-issue the instruction that caused the
         * exception.
         */
        addi  r15, ea, -4  /* instruction that caused exception */
   100a0:	ebffff04 	addi	r15,ea,-4
        stw   r15,  72(sp)
   100a4:	dbc01215 	stw	r15,72(sp)
        /* 
         * Restore the saved registers, so that all general purpose registers 
         * have been restored to their state at the time the interrupt occured.
         */

        ldw   r5,  68(sp)
   100a8:	d9401117 	ldw	r5,68(sp)
        ldw   ea,  72(sp)  /* This becomes the PC once eret is executed */
   100ac:	df401217 	ldw	ea,72(sp)
        ldw   ra,   0(sp)
   100b0:	dfc00017 	ldw	ra,0(sp)

        wrctl estatus, r5
   100b4:	2801707a 	wrctl	estatus,r5

        ldw   r1,   8(sp)
   100b8:	d8400217 	ldw	at,8(sp)
        ldw   r2,  12(sp)
   100bc:	d8800317 	ldw	r2,12(sp)
        ldw   r3,  16(sp)
   100c0:	d8c00417 	ldw	r3,16(sp)
        ldw   r4,  20(sp)
   100c4:	d9000517 	ldw	r4,20(sp)
        ldw   r5,  24(sp)
   100c8:	d9400617 	ldw	r5,24(sp)
        ldw   r6,  28(sp)
   100cc:	d9800717 	ldw	r6,28(sp)
        ldw   r7,  32(sp)
   100d0:	d9c00817 	ldw	r7,32(sp)

#if defined(ALT_EXCEPTION_STACK) && defined(ALT_STACK_CHECK)
        ldw   et, %gprel(alt_exception_old_stack_limit)(gp)
#endif

        ldw   r8,  36(sp)
   100d4:	da000917 	ldw	r8,36(sp)
        ldw   r9,  40(sp)
   100d8:	da400a17 	ldw	r9,40(sp)
        ldw   r10, 44(sp)
   100dc:	da800b17 	ldw	r10,44(sp)
        ldw   r11, 48(sp)
   100e0:	dac00c17 	ldw	r11,48(sp)
        ldw   r12, 52(sp)
   100e4:	db000d17 	ldw	r12,52(sp)
        ldw   r13, 56(sp)
   100e8:	db400e17 	ldw	r13,56(sp)
        ldw   r14, 60(sp)
   100ec:	db800f17 	ldw	r14,60(sp)
        ldw   r15, 64(sp)
   100f0:	dbc01017 	ldw	r15,64(sp)
        stw   et, %gprel(alt_stack_limit_value)(gp)
        stw   zero, %gprel(alt_exception_old_stack_limit)(gp)
#endif /* ALT_STACK_CHECK */
        ldw   sp,  76(sp)
#else /* ALT_EXCEPTION_STACK disabled */
        addi  sp, sp, 76
   100f4:	dec01304 	addi	sp,sp,76

        /*
         * Return to the interrupted instruction.
         */

        eret
   100f8:	ef80083a 	eret

000100fc <alt_irq_handler>:
 * instruction is present if the macro ALT_CI_INTERRUPT_VECTOR defined.
 */

void alt_irq_handler (void) __attribute__ ((section (".exceptions")));
void alt_irq_handler (void)
{
   100fc:	defffe04 	addi	sp,sp,-8
   10100:	dfc00115 	stw	ra,4(sp)
   10104:	dc000015 	stw	r16,0(sp)
#ifndef NIOS2_EIC_PRESENT
static ALT_INLINE alt_u32 ALT_ALWAYS_INLINE alt_irq_pending (void)
{
  alt_u32 active;

  NIOS2_READ_IPENDING (active);
   10108:	0007313a 	rdctl	r3,ipending
      if (active & mask)
      { 
#ifdef ALT_ENHANCED_INTERRUPT_API_PRESENT
        alt_irq[i].handler(alt_irq[i].context); 
#else
        alt_irq[i].handler(alt_irq[i].context, i); 
   1010c:	040000b4 	movhi	r16,2
   10110:	843b9004 	addi	r16,r16,-4544

  active = alt_irq_pending ();

  do
  {
    i = 0;
   10114:	000b883a 	mov	r5,zero
    mask = 1;
   10118:	00800044 	movi	r2,1
     * called to clear the interrupt condition.
     */

    do
    {
      if (active & mask)
   1011c:	1888703a 	and	r4,r3,r2
   10120:	20000b26 	beq	r4,zero,10150 <alt_irq_handler+0x54>
      { 
#ifdef ALT_ENHANCED_INTERRUPT_API_PRESENT
        alt_irq[i].handler(alt_irq[i].context); 
#else
        alt_irq[i].handler(alt_irq[i].context, i); 
   10124:	280490fa 	slli	r2,r5,3
   10128:	8085883a 	add	r2,r16,r2
   1012c:	10c00017 	ldw	r3,0(r2)
   10130:	11000117 	ldw	r4,4(r2)
   10134:	183ee83a 	callr	r3
   10138:	0007313a 	rdctl	r3,ipending

    } while (1);

    active = alt_irq_pending ();
    
  } while (active);
   1013c:	183ff51e 	bne	r3,zero,10114 <_gp+0xfffea058>
  /*
   * Notify the operating system that interrupt processing is complete.
   */ 

  ALT_OS_INT_EXIT();
}
   10140:	dfc00117 	ldw	ra,4(sp)
   10144:	dc000017 	ldw	r16,0(sp)
   10148:	dec00204 	addi	sp,sp,8
   1014c:	f800283a 	ret
#else
        alt_irq[i].handler(alt_irq[i].context, i); 
#endif
        break;
      }
      mask <<= 1;
   10150:	1085883a 	add	r2,r2,r2
      i++;
   10154:	29400044 	addi	r5,r5,1

    } while (1);
   10158:	003ff006 	br	1011c <_gp+0xfffea060>

0001015c <alt_instruction_exception_entry>:
#else
  cause = NIOS2_EXCEPTION_CAUSE_NOT_PRESENT;
  badaddr = 0;
#endif /* NIOS2_HAS_EXTRA_EXCEPTION_INFO */

  if(alt_instruction_exception_handler) {
   1015c:	d0a28c17 	ldw	r2,-30160(gp)
   10160:	10000426 	beq	r2,zero,10174 <alt_instruction_exception_entry+0x18>
     * Call handler. Its return value indicates whether the exception-causing
     * instruction should be re-issued. The code that called us,
     * alt_eceptions_entry.S, will look at this value and adjust the ea
     * register as necessary
     */
    return alt_instruction_exception_handler(cause, exception_pc, badaddr);
   10164:	200b883a 	mov	r5,r4
   10168:	000d883a 	mov	r6,zero
   1016c:	013fffc4 	movi	r4,-1
   10170:	1000683a 	jmp	r2
   *    (a peripheral which negates its interrupt output before its
   *    interrupt handler has been executed will cause spurious interrupts)
   */
  else {
#ifdef NIOS2_HAS_DEBUG_STUB
    NIOS2_BREAK();
   10174:	003da03a 	break	0
#endif /* NIOS2_HAS_DEBUG_STUB */
  }

  /* We should not get here. Remove compiler warning. */
  return NIOS2_EXCEPTION_RETURN_REISSUE_INST;
}
   10178:	0005883a 	mov	r2,zero
   1017c:	f800283a 	ret

Disassembly of section .text:

00010180 <_start>:

    /*
     * Now that the caches are initialized, set up the stack pointer and global pointer.
     * The values provided by the linker are assumed to be correctly aligned.
     */
    movhi sp, %hi(__alt_stack_pointer)
   10180:	06c000b4 	movhi	sp,2
    ori sp, sp, %lo(__alt_stack_pointer)
   10184:	dec00014 	ori	sp,sp,0
    movhi gp, %hi(_gp)
   10188:	068000b4 	movhi	gp,2
    ori gp, gp, %lo(_gp)
   1018c:	d6982f14 	ori	gp,gp,24764
 */
#ifndef ALT_SIM_OPTIMIZE
    /* Log that the BSS is about to be cleared. */
    ALT_LOG_PUTS(alt_log_msg_bss)

    movhi r2, %hi(__bss_start)
   10190:	00800074 	movhi	r2,1
    ori r2, r2, %lo(__bss_start)
   10194:	10ba9d14 	ori	r2,r2,60020

    movhi r3, %hi(__bss_end)
   10198:	00c00074 	movhi	r3,1
    ori r3, r3, %lo(__bss_end)
   1019c:	18fbd014 	ori	r3,r3,61248

    beq r2, r3, 1f
   101a0:	10c00326 	beq	r2,r3,101b0 <_start+0x30>

0:
    stw zero, (r2)
   101a4:	10000015 	stw	zero,0(r2)
    addi r2, r2, 4
   101a8:	10800104 	addi	r2,r2,4
    bltu r2, r3, 0b
   101ac:	10fffd36 	bltu	r2,r3,101a4 <_gp+0xfffea0e8>
     * section aren't defined until alt_load() has been called).
     */
    mov   et, zero
#endif

    call alt_load
   101b0:	001cd740 	call	1cd74 <alt_load>

    /* Log that alt_main is about to be called. */
    ALT_LOG_PUTS(alt_log_msg_alt_main)

    /* Call the C entry point. It should never return. */
    call alt_main
   101b4:	001ce540 	call	1ce54 <alt_main>

000101b8 <alt_after_alt_main>:

    /* Wait in infinite loop in case alt_main does return. */
alt_after_alt_main:
    br alt_after_alt_main
   101b8:	003fff06 	br	101b8 <_gp+0xfffea0fc>

000101bc <sys_timer_isr>:
    * led = (8 >> val) | (8 << (8 - val));
    * level = (acc_read >> 1) & 0x1f;
}

void sys_timer_isr() {
    IOWR_ALTERA_AVALON_TIMER_STATUS(TIMER_BASE, 0);
   101bc:	008000b4 	movhi	r2,2
   101c0:	10840004 	addi	r2,r2,4096
   101c4:	10000035 	stwio	zero,0(r2)

    if (pwm < abs(level)) {
   101c8:	d0a27817 	ldw	r2,-30240(gp)
   101cc:	d1626e07 	ldb	r5,-30280(gp)
   101d0:	1009883a 	mov	r4,r2
   101d4:	1000010e 	bge	r2,zero,101dc <sys_timer_isr+0x20>
   101d8:	0089c83a 	sub	r4,zero,r2
   101dc:	00c000b4 	movhi	r3,2
   101e0:	18c42004 	addi	r3,r3,4224
   101e4:	2900080e 	bge	r5,r4,10208 <sys_timer_isr+0x4c>

        if (level < 0) {
   101e8:	1000040e 	bge	r2,zero,101fc <sys_timer_isr+0x40>
alt_8 pwm = 0;
alt_u8 led;
int level;

void led_write(alt_u8 led_pattern) {
    IOWR(LED_BASE, 0, led_pattern);
   101ec:	d0a27703 	ldbu	r2,-30244(gp)
   101f0:	1085883a 	add	r2,r2,r2
   101f4:	10803fcc 	andi	r2,r2,255
   101f8:	00000406 	br	1020c <sys_timer_isr+0x50>
   101fc:	d0a27703 	ldbu	r2,-30244(gp)
   10200:	1004d07a 	srli	r2,r2,1
   10204:	00000106 	br	1020c <sys_timer_isr+0x50>
   10208:	d0a27703 	ldbu	r2,-30244(gp)
   1020c:	18800035 	stwio	r2,0(r3)

    } else {
        led_write(led);
    }

    if (pwm > PWM_PERIOD) {
   10210:	d0a26e03 	ldbu	r2,-30280(gp)
   10214:	01000404 	movi	r4,16
   10218:	10c03fcc 	andi	r3,r2,255
   1021c:	18c0201c 	xori	r3,r3,128
   10220:	18ffe004 	addi	r3,r3,-128
   10224:	20c0020e 	bge	r4,r3,10230 <sys_timer_isr+0x74>
        pwm = 0;
   10228:	d0226e05 	stb	zero,-30280(gp)
   1022c:	f800283a 	ret
    } else {
        pwm++;
   10230:	10800044 	addi	r2,r2,1
   10234:	d0a26e05 	stb	r2,-30280(gp)
   10238:	f800283a 	ret

0001023c <print_data>:
char text[2*CHARLIM];//The text that has been adjusted for the allowed letters
int pause, reverse, toggle, speedup_toggle, slowdown_toggle, dance_state, dancing, dance_dir, upsideDown, length, re_enter, disp_off, flag;
int timer = CLOCKINIT;  //Standard speed for movement
int life = 1023;

void print_data(char *accel_x, char *accel_y, char *switchdata, char *buttondata){
   1023c:	defffc04 	addi	sp,sp,-16
	char *printMsg;
	asprintf(&printMsg, "%s %s %s %s\n", accel_x, accel_y, switchdata, buttondata); 	// Print out the strings
   10240:	d9c00115 	stw	r7,4(sp)
   10244:	280f883a 	mov	r7,r5
   10248:	014000b4 	movhi	r5,2
   1024c:	29750404 	addi	r5,r5,-11248
   10250:	d9800015 	stw	r6,0(sp)
   10254:	200d883a 	mov	r6,r4
   10258:	d9000204 	addi	r4,sp,8
char text[2*CHARLIM];//The text that has been adjusted for the allowed letters
int pause, reverse, toggle, speedup_toggle, slowdown_toggle, dance_state, dancing, dance_dir, upsideDown, length, re_enter, disp_off, flag;
int timer = CLOCKINIT;  //Standard speed for movement
int life = 1023;

void print_data(char *accel_x, char *accel_y, char *switchdata, char *buttondata){
   1025c:	dfc00315 	stw	ra,12(sp)
	char *printMsg;
	asprintf(&printMsg, "%s %s %s %s\n", accel_x, accel_y, switchdata, buttondata); 	// Print out the strings
   10260:	00122fc0 	call	122fc <asprintf>
	alt_putstr(printMsg);
   10264:	d9000217 	ldw	r4,8(sp)
   10268:	001ce880 	call	1ce88 <alt_putstr>
	free(printMsg);
   1026c:	d9000217 	ldw	r4,8(sp)
   10270:	00123880 	call	12388 <free>
	//memset(accel_x, 0, 4*CHARLIM);
	//memset(accel_y, 0, 4*CHARLIM);
	//memset(switchdata, 0, 4*CHARLIM);
	//memset(buttondata, 0, 4*CHARLIM);
}
   10274:	dfc00317 	ldw	ra,12(sp)
   10278:	dec00404 	addi	sp,sp,16
   1027c:	f800283a 	ret

00010280 <send_text>:

void send_text(char *text) {
   10280:	defffd04 	addi	sp,sp,-12
	char *printMsg;
	asprintf(&printMsg, "<--> %s <--> \n", text); 	// Print out the strings
   10284:	014000b4 	movhi	r5,2
   10288:	200d883a 	mov	r6,r4
   1028c:	29750804 	addi	r5,r5,-11232
	//memset(accel_y, 0, 4*CHARLIM);
	//memset(switchdata, 0, 4*CHARLIM);
	//memset(buttondata, 0, 4*CHARLIM);
}

void send_text(char *text) {
   10290:	dc000115 	stw	r16,4(sp)
   10294:	2021883a 	mov	r16,r4
	char *printMsg;
	asprintf(&printMsg, "<--> %s <--> \n", text); 	// Print out the strings
   10298:	d809883a 	mov	r4,sp
	//memset(accel_y, 0, 4*CHARLIM);
	//memset(switchdata, 0, 4*CHARLIM);
	//memset(buttondata, 0, 4*CHARLIM);
}

void send_text(char *text) {
   1029c:	dfc00215 	stw	ra,8(sp)
	char *printMsg;
	asprintf(&printMsg, "<--> %s <--> \n", text); 	// Print out the strings
   102a0:	00122fc0 	call	122fc <asprintf>
	alt_putstr(printMsg);
   102a4:	d9000017 	ldw	r4,0(sp)
   102a8:	001ce880 	call	1ce88 <alt_putstr>
	free(printMsg);
   102ac:	d9000017 	ldw	r4,0(sp)
   102b0:	00123880 	call	12388 <free>
	memset(text, 0, 2*CHARLIM);								// Empty the text buffer for next input
   102b4:	01808004 	movi	r6,512
   102b8:	000b883a 	mov	r5,zero
   102bc:	8009883a 	mov	r4,r16
}
   102c0:	dfc00217 	ldw	ra,8(sp)
   102c4:	dc000117 	ldw	r16,4(sp)
   102c8:	dec00304 	addi	sp,sp,12
void send_text(char *text) {
	char *printMsg;
	asprintf(&printMsg, "<--> %s <--> \n", text); 	// Print out the strings
	alt_putstr(printMsg);
	free(printMsg);
	memset(text, 0, 2*CHARLIM);								// Empty the text buffer for next input
   102cc:	0012ba81 	jmpi	12ba8 <memset>

000102d0 <generate_text>:
}

char generate_text(char curr, int *length, char *text, int *running) {
   102d0:	2005883a 	mov	r2,r4
	if(curr == '\n') return curr;								// If the line is empty, return nothing.
   102d4:	21003fcc 	andi	r4,r4,255
   102d8:	2100201c 	xori	r4,r4,128
   102dc:	213fe004 	addi	r4,r4,-128
   102e0:	00c00284 	movi	r3,10
   102e4:	20c02626 	beq	r4,r3,10380 <generate_text+0xb0>
	alt_putstr(printMsg);
	free(printMsg);
	memset(text, 0, 2*CHARLIM);								// Empty the text buffer for next input
}

char generate_text(char curr, int *length, char *text, int *running) {
   102e8:	defff804 	addi	sp,sp,-32
   102ec:	dd800615 	stw	r22,24(sp)
   102f0:	dd400515 	stw	r21,20(sp)
   102f4:	dd000415 	stw	r20,16(sp)
   102f8:	dcc00315 	stw	r19,12(sp)
   102fc:	dc800215 	stw	r18,8(sp)
   10300:	dc400115 	stw	r17,4(sp)
   10304:	dc000015 	stw	r16,0(sp)
   10308:	dfc00715 	stw	ra,28(sp)
   1030c:	3829883a 	mov	r20,r7
   10310:	3025883a 	mov	r18,r6
   10314:	2827883a 	mov	r19,r5
	if(curr == '\n') return curr;								// If the line is empty, return nothing.
   10318:	3023883a 	mov	r17,r6
	int idx = 0;										// Keep track of how many characters have been sent down for later printing
	char newCurr = curr;

	while (newCurr != EOF && newCurr != '\n'){						// Keep reading characters until we get to the end of the line
   1031c:	057fffc4 	movi	r21,-1
   10320:	1821883a 	mov	r16,r3
		if (newCurr == QUITLETTER) { *running = 0; }					// If quitting letter is encountered, setting running to 0
   10324:	05801f84 	movi	r22,126
char generate_text(char curr, int *length, char *text, int *running) {
	if(curr == '\n') return curr;								// If the line is empty, return nothing.
	int idx = 0;										// Keep track of how many characters have been sent down for later printing
	char newCurr = curr;

	while (newCurr != EOF && newCurr != '\n'){						// Keep reading characters until we get to the end of the line
   10328:	10c03fcc 	andi	r3,r2,255
   1032c:	18c0201c 	xori	r3,r3,128
   10330:	18ffe004 	addi	r3,r3,-128
   10334:	8c89c83a 	sub	r4,r17,r18
   10338:	1d400726 	beq	r3,r21,10358 <generate_text+0x88>
   1033c:	1c000626 	beq	r3,r16,10358 <generate_text+0x88>
		if (newCurr == QUITLETTER) { *running = 0; }					// If quitting letter is encountered, setting running to 0
   10340:	1d80011e 	bne	r3,r22,10348 <generate_text+0x78>
   10344:	a0000015 	stw	zero,0(r20)
		text[idx] = newCurr;								// Add the next letter to the text buffer
   10348:	88800005 	stb	r2,0(r17)
		idx++;										// Keep track of the number of characters read
		newCurr = alt_getchar();							// Get the next character
   1034c:	001cc9c0 	call	1cc9c <alt_getchar>
   10350:	8c400044 	addi	r17,r17,1
   10354:	003ff406 	br	10328 <_gp+0xfffea26c>
	}
	*length = idx;
   10358:	99000015 	stw	r4,0(r19)

	return newCurr;
}
   1035c:	dfc00717 	ldw	ra,28(sp)
   10360:	dd800617 	ldw	r22,24(sp)
   10364:	dd400517 	ldw	r21,20(sp)
   10368:	dd000417 	ldw	r20,16(sp)
   1036c:	dcc00317 	ldw	r19,12(sp)
   10370:	dc800217 	ldw	r18,8(sp)
   10374:	dc400117 	ldw	r17,4(sp)
   10378:	dc000017 	ldw	r16,0(sp)
   1037c:	dec00804 	addi	sp,sp,32
   10380:	f800283a 	ret

00010384 <interpret_command>:

char * interpret_command(char* command)
{
	if ( strstr(command, "7SEG=") != 0 ) {
   10384:	014000b4 	movhi	r5,2

	return newCurr;
}

char * interpret_command(char* command)
{
   10388:	defffe04 	addi	sp,sp,-8
	if ( strstr(command, "7SEG=") != 0 ) {
   1038c:	29750c04 	addi	r5,r5,-11216

	return newCurr;
}

char * interpret_command(char* command)
{
   10390:	dc000015 	stw	r16,0(sp)
   10394:	dfc00115 	stw	ra,4(sp)
   10398:	2021883a 	mov	r16,r4
	if ( strstr(command, "7SEG=") != 0 ) {
   1039c:	00134900 	call	13490 <strstr>
   103a0:	10000226 	beq	r2,zero,103ac <interpret_command+0x28>
		command += 5;
   103a4:	80800144 	addi	r2,r16,5
		return command;
   103a8:	00002406 	br	1043c <interpret_command+0xb8>
	}
	if ( strstr(command, "LED=") != 0 ) {
   103ac:	014000b4 	movhi	r5,2
   103b0:	29750e04 	addi	r5,r5,-11208
   103b4:	8009883a 	mov	r4,r16
   103b8:	00134900 	call	13490 <strstr>
   103bc:	10000226 	beq	r2,zero,103c8 <interpret_command+0x44>
		command += 4;
   103c0:	80800104 	addi	r2,r16,4
		return command;
   103c4:	00001d06 	br	1043c <interpret_command+0xb8>
	}
	if ( strstr(command, "LIFE+") != 0 )	{
   103c8:	014000b4 	movhi	r5,2
   103cc:	29751004 	addi	r5,r5,-11200
   103d0:	8009883a 	mov	r4,r16
   103d4:	00134900 	call	13490 <strstr>
   103d8:	10000426 	beq	r2,zero,103ec <interpret_command+0x68>
		life = ((life + 1) * 2) - 1;
   103dc:	d0a00017 	ldw	r2,-32768(gp)
   103e0:	1004907a 	slli	r2,r2,1
   103e4:	10800044 	addi	r2,r2,1
   103e8:	00001106 	br	10430 <interpret_command+0xac>
		command += 5;
		return "";
	}
	if ( strstr(command, "LIFE-") != 0 )	{
   103ec:	014000b4 	movhi	r5,2
   103f0:	29751204 	addi	r5,r5,-11192
   103f4:	8009883a 	mov	r4,r16
   103f8:	00134900 	call	13490 <strstr>
   103fc:	10000726 	beq	r2,zero,1041c <interpret_command+0x98>
		life = ((life + 1) / 2) - 1;
   10400:	d0a00017 	ldw	r2,-32768(gp)
   10404:	10800044 	addi	r2,r2,1
   10408:	1006d7fa 	srli	r3,r2,31
   1040c:	1885883a 	add	r2,r3,r2
   10410:	1005d07a 	srai	r2,r2,1
   10414:	10bfffc4 	addi	r2,r2,-1
   10418:	00000506 	br	10430 <interpret_command+0xac>
		command += 5;
		return "";
	}
	if ( strstr(command, "r") != 0 ) {
   1041c:	01401c84 	movi	r5,114
   10420:	8009883a 	mov	r4,r16
   10424:	0012de80 	call	12de8 <strchr>
   10428:	10000226 	beq	r2,zero,10434 <interpret_command+0xb0>
		life = 1023;
   1042c:	0080ffc4 	movi	r2,1023
   10430:	d0a00015 	stw	r2,-32768(gp)
	if ( strstr(command, "LIFE-") != 0 )	{
		life = ((life + 1) / 2) - 1;
		command += 5;
		return "";
	}
	if ( strstr(command, "r") != 0 ) {
   10434:	008000b4 	movhi	r2,2
   10438:	10b50704 	addi	r2,r2,-11236
	}
	if ( strcmp(command, "") != 0 ) {
		return "";
	}
	return "";
}
   1043c:	dfc00117 	ldw	ra,4(sp)
   10440:	dc000017 	ldw	r16,0(sp)
   10444:	dec00204 	addi	sp,sp,8
   10448:	f800283a 	ret

0001044c <read_chars>:

char * read_chars() {
   1044c:	deff7d04 	addi	sp,sp,-524
	char data[2*CHARLIM];									// The buffer for the printing text
	char prevLetter = '!';
	int length = 0;
	int running = 1;
   10450:	00800044 	movi	r2,1
		return "";
	}
	return "";
}

char * read_chars() {
   10454:	dfc08215 	stw	ra,520(sp)
	char data[2*CHARLIM];									// The buffer for the printing text
	char prevLetter = '!';
	int length = 0;
   10458:	d8008115 	stw	zero,516(sp)
	int running = 1;
   1045c:	d8808015 	stw	r2,512(sp)

	prevLetter = alt_getchar();							// Extract the first character (and create a hold until one arrives)
   10460:	001cc9c0 	call	1cc9c <alt_getchar>
	prevLetter = generate_text(prevLetter, &length, data, &running);		// Process input text
   10464:	11003fcc 	andi	r4,r2,255
   10468:	2100201c 	xori	r4,r4,128
   1046c:	d9c08004 	addi	r7,sp,512
   10470:	d80d883a 	mov	r6,sp
   10474:	d9408104 	addi	r5,sp,516
   10478:	213fe004 	addi	r4,r4,-128
   1047c:	00102d00 	call	102d0 <generate_text>
	//print_text(text, length);							// Print input text

	return interpret_command(data);
   10480:	d809883a 	mov	r4,sp
   10484:	00103840 	call	10384 <interpret_command>
}
   10488:	dfc08217 	ldw	ra,520(sp)
   1048c:	dec08304 	addi	sp,sp,524
   10490:	f800283a 	ret

00010494 <led_write>:
alt_8 pwm = 0;
alt_u8 led;
int level;

void led_write(alt_u8 led_pattern) {
    IOWR(LED_BASE, 0, led_pattern);
   10494:	008000b4 	movhi	r2,2
   10498:	21003fcc 	andi	r4,r4,255
   1049c:	10842004 	addi	r2,r2,4224
   104a0:	11000035 	stwio	r4,0(r2)
   104a4:	f800283a 	ret

000104a8 <convert_read>:
}

void convert_read(alt_32 acc_read, int * level, alt_u8 * led) {
    acc_read += OFFSET;
   104a8:	213ff804 	addi	r4,r4,-32
    alt_u8 val = (acc_read >> 6) & 0x07;
    * led = (8 >> val) | (8 << (8 - val));
   104ac:	2005d1ba 	srai	r2,r4,6
    * level = (acc_read >> 1) & 0x1f;
   104b0:	2009d07a 	srai	r4,r4,1
}

void convert_read(alt_32 acc_read, int * level, alt_u8 * led) {
    acc_read += OFFSET;
    alt_u8 val = (acc_read >> 6) & 0x07;
    * led = (8 >> val) | (8 << (8 - val));
   104b4:	10c001cc 	andi	r3,r2,7
   104b8:	00800204 	movi	r2,8
   104bc:	10cfc83a 	sub	r7,r2,r3
   104c0:	11ce983a 	sll	r7,r2,r7
   104c4:	10c5d83a 	sra	r2,r2,r3
    * level = (acc_read >> 1) & 0x1f;
   104c8:	210007cc 	andi	r4,r4,31
}

void convert_read(alt_32 acc_read, int * level, alt_u8 * led) {
    acc_read += OFFSET;
    alt_u8 val = (acc_read >> 6) & 0x07;
    * led = (8 >> val) | (8 << (8 - val));
   104cc:	3884b03a 	or	r2,r7,r2
   104d0:	30800005 	stb	r2,0(r6)
    * level = (acc_read >> 1) & 0x1f;
   104d4:	29000015 	stw	r4,0(r5)
   104d8:	f800283a 	ret

000104dc <timer_init>:
    } else {
        pwm++;
    }
}

void timer_init(void * isr) {
   104dc:	defffe04 	addi	sp,sp,-8
   104e0:	dc000015 	stw	r16,0(sp)
    IOWR_ALTERA_AVALON_TIMER_CONTROL(TIMER_BASE, 0x0003);
   104e4:	040000b4 	movhi	r16,2
    } else {
        pwm++;
    }
}

void timer_init(void * isr) {
   104e8:	dfc00115 	stw	ra,4(sp)
    IOWR_ALTERA_AVALON_TIMER_CONTROL(TIMER_BASE, 0x0003);
   104ec:	84040104 	addi	r16,r16,4100
   104f0:	008000c4 	movi	r2,3
   104f4:	80800035 	stwio	r2,0(r16)
    IOWR_ALTERA_AVALON_TIMER_STATUS(TIMER_BASE, 0);
   104f8:	00c000b4 	movhi	r3,2
   104fc:	0005883a 	mov	r2,zero
   10500:	18c40004 	addi	r3,r3,4096
   10504:	18800035 	stwio	r2,0(r3)
    IOWR_ALTERA_AVALON_TIMER_PERIODL(TIMER_BASE, 0x0900);
   10508:	00c000b4 	movhi	r3,2
   1050c:	18c40204 	addi	r3,r3,4104
   10510:	01424004 	movi	r5,2304
   10514:	19400035 	stwio	r5,0(r3)
    IOWR_ALTERA_AVALON_TIMER_PERIODH(TIMER_BASE, 0x0000);
   10518:	00c000b4 	movhi	r3,2
   1051c:	18c40304 	addi	r3,r3,4108
   10520:	18800035 	stwio	r2,0(r3)
    alt_irq_register(TIMER_IRQ, 0, isr);
   10524:	200d883a 	mov	r6,r4
   10528:	000b883a 	mov	r5,zero
   1052c:	01000084 	movi	r4,2
   10530:	001cce00 	call	1cce0 <alt_irq_register>
    IOWR_ALTERA_AVALON_TIMER_CONTROL(TIMER_BASE, 0x0007);
   10534:	008001c4 	movi	r2,7
   10538:	80800035 	stwio	r2,0(r16)
}
   1053c:	dfc00117 	ldw	ra,4(sp)
   10540:	dc000017 	ldw	r16,0(sp)
   10544:	dec00204 	addi	sp,sp,8
   10548:	f800283a 	ret

0001054c <getBin>:
	int bit7 = (letter_inv & 0b1000000) >> 3;
	int res = (0b0000000) | bit0 | bit1 | bit5 | bit7;
	return ~res; //Uninvert the binary representation so the display knows which lights to turn on
}
//Gets the binary representation of the character
int getBin(char letter){
   1054c:	213ff404 	addi	r4,r4,-48
   10550:	21003fcc 	andi	r4,r4,255
   10554:	00800a84 	movi	r2,42
   10558:	11000536 	bltu	r2,r4,10570 <getBin+0x24>
   1055c:	008000b4 	movhi	r2,2
   10560:	10b51b04 	addi	r2,r2,-11156
   10564:	1109883a 	add	r4,r2,r4
   10568:	20800007 	ldb	r2,0(r4)
   1056c:	f800283a 	ret
	/*Based on the character entered, we convert to binary so the 7-segment knows which lights to turn on.
	The 7-segment has inverted logic so a 0 means the light is on and a 1 means the light is off.
	The rightmost bit starts the index at HEX#[0], and the leftmost bit is HEX#[6], the pattern
	for the 7-segment is shown in the DE0_C5 User Manual*/
	switch(letter){
   10570:	00801fc4 	movi	r2,127
	case 'Z':
		return 0b0100100;
	default:
		return 0b1111111;
	}
}
   10574:	f800283a 	ret

00010578 <getBinaryLetter>:
	int res = (0b0000000) | bit3;
	return ~res; //Uninvert the logic to get the correct representation
}
//Returns the letter or the upsideDown version of the letter
int getBinaryLetter(char letter){
	int let = getBin(letter);
   10578:	21003fcc 	andi	r4,r4,255
   1057c:	2100201c 	xori	r4,r4,128
	int bit3 = (letter_inv & 0b0001000) >> 3; //This logic deals with bit shifting so the letters appear higher on the display
	int res = (0b0000000) | bit3;
	return ~res; //Uninvert the logic to get the correct representation
}
//Returns the letter or the upsideDown version of the letter
int getBinaryLetter(char letter){
   10580:	deffff04 	addi	sp,sp,-4
	int let = getBin(letter);
   10584:	213fe004 	addi	r4,r4,-128
	int bit3 = (letter_inv & 0b0001000) >> 3; //This logic deals with bit shifting so the letters appear higher on the display
	int res = (0b0000000) | bit3;
	return ~res; //Uninvert the logic to get the correct representation
}
//Returns the letter or the upsideDown version of the letter
int getBinaryLetter(char letter){
   10588:	dfc00015 	stw	ra,0(sp)
	int let = getBin(letter);
   1058c:	001054c0 	call	1054c <getBin>
	if (upsideDown){
   10590:	d0e27c17 	ldw	r3,-30224(gp)
   10594:	18001426 	beq	r3,zero,105e8 <getBinaryLetter+0x70>
		//If the user has toggled the upsideDown switch, (SW8), we can use bit shifting to invert the display
		int letter_inv = ~let; //Inverting the binary makes the logic easier to deal with.
   10598:	0086303a 	nor	r3,zero,r2
		int bit3 = (letter_inv & 0b0001000) >> 3;
		int bit4 = (letter_inv & 0b0010000) << 1;
		int bit5 = (letter_inv & 0b0100000) >> 1;
		int bit6 = (letter_inv & 0b1000000);
		int full_inv = (0b0000000) | bit0 | bit1 | bit2 | bit3 | bit4 | bit5 | bit6;
		return ~full_inv; //Invert the logic back again
   1059c:	1880004c 	andi	r2,r3,1
   105a0:	100890fa 	slli	r4,r2,3
   105a4:	1880008c 	andi	r2,r3,2
   105a8:	1085883a 	add	r2,r2,r2
   105ac:	2084b03a 	or	r2,r4,r2
   105b0:	1900100c 	andi	r4,r3,64
   105b4:	1104b03a 	or	r2,r2,r4
   105b8:	1900010c 	andi	r4,r3,4
   105bc:	2009d07a 	srai	r4,r4,1
   105c0:	1104b03a 	or	r2,r2,r4
   105c4:	1900020c 	andi	r4,r3,8
   105c8:	2009d0fa 	srai	r4,r4,3
   105cc:	1104b03a 	or	r2,r2,r4
   105d0:	1900040c 	andi	r4,r3,16
   105d4:	18c0080c 	andi	r3,r3,32
   105d8:	1807d07a 	srai	r3,r3,1
   105dc:	2109883a 	add	r4,r4,r4
   105e0:	1104b03a 	or	r2,r2,r4
   105e4:	10c4303a 	nor	r2,r2,r3
	}
	//Otherwise, if the SW8 is in the rightside-up position, we can just display the letter
	return let;
}
   105e8:	dfc00017 	ldw	ra,0(sp)
   105ec:	dec00104 	addi	sp,sp,4
   105f0:	f800283a 	ret

000105f4 <getBinLowLow>:

//Does initial setup of display

//Gets the lowest number representation of the given letter
int getBinLowLow(char letter){
	int letter_inv = ~getBinaryLetter(letter); //Get the integer representation of the letter; the inverting logic is easier to deal with
   105f4:	21003fcc 	andi	r4,r4,255
   105f8:	2100201c 	xori	r4,r4,128
}

//Does initial setup of display

//Gets the lowest number representation of the given letter
int getBinLowLow(char letter){
   105fc:	deffff04 	addi	sp,sp,-4
	int letter_inv = ~getBinaryLetter(letter); //Get the integer representation of the letter; the inverting logic is easier to deal with
   10600:	213fe004 	addi	r4,r4,-128
}

//Does initial setup of display

//Gets the lowest number representation of the given letter
int getBinLowLow(char letter){
   10604:	dfc00015 	stw	ra,0(sp)
	int letter_inv = ~getBinaryLetter(letter); //Get the integer representation of the letter; the inverting logic is easier to deal with
   10608:	00105780 	call	10578 <getBinaryLetter>
	int bit0 = (letter_inv & 0b0000001) << 3; //This logic deals with bit shifting so the letters appear higher on the display
	int res = (0b0000000) | bit0;
	return ~res; //Reinvert the binary representation of the modified letter so the display reads the correct representation
   1060c:	0084303a 	nor	r2,zero,r2
   10610:	1080004c 	andi	r2,r2,1
   10614:	100490fa 	slli	r2,r2,3
}
   10618:	0084303a 	nor	r2,zero,r2
   1061c:	dfc00017 	ldw	ra,0(sp)
   10620:	dec00104 	addi	sp,sp,4
   10624:	f800283a 	ret

00010628 <getBinLow>:
//Gets a lower integer representation of the given letter
int getBinLow(char letter){
	int letter_inv = ~getBinaryLetter(letter); //Get the integer representation of the letter; inverting the binary makes the logic easier
   10628:	21003fcc 	andi	r4,r4,255
   1062c:	2100201c 	xori	r4,r4,128
	int bit0 = (letter_inv & 0b0000001) << 3; //This logic deals with bit shifting so the letters appear higher on the display
	int res = (0b0000000) | bit0;
	return ~res; //Reinvert the binary representation of the modified letter so the display reads the correct representation
}
//Gets a lower integer representation of the given letter
int getBinLow(char letter){
   10630:	deffff04 	addi	sp,sp,-4
	int letter_inv = ~getBinaryLetter(letter); //Get the integer representation of the letter; inverting the binary makes the logic easier
   10634:	213fe004 	addi	r4,r4,-128
	int bit0 = (letter_inv & 0b0000001) << 3; //This logic deals with bit shifting so the letters appear higher on the display
	int res = (0b0000000) | bit0;
	return ~res; //Reinvert the binary representation of the modified letter so the display reads the correct representation
}
//Gets a lower integer representation of the given letter
int getBinLow(char letter){
   10638:	dfc00015 	stw	ra,0(sp)
	int letter_inv = ~getBinaryLetter(letter); //Get the integer representation of the letter; inverting the binary makes the logic easier
   1063c:	00105780 	call	10578 <getBinaryLetter>
   10640:	0086303a 	nor	r3,zero,r2
	int bit0 = (letter_inv & 0b0000001) << 6; //This logic deals with bit shifting so the letters appear higher on the display
	int bit1 = (letter_inv & 0b0000010) << 1;
	int bit5 = (letter_inv & 0b0100000) >> 1;
	int bit7 = (letter_inv & 0b1000000) >> 3;
	int res = (0b0000000) | bit0 | bit1 | bit5 | bit7;
	return ~res; //Uninvert the binary representation so the display knows which lights to turn on
   10644:	1900004c 	andi	r4,r3,1
   10648:	200491ba 	slli	r2,r4,6
   1064c:	1900008c 	andi	r4,r3,2
   10650:	2109883a 	add	r4,r4,r4
   10654:	1108b03a 	or	r4,r2,r4
   10658:	1880080c 	andi	r2,r3,32
   1065c:	1005d07a 	srai	r2,r2,1
   10660:	18c0100c 	andi	r3,r3,64
   10664:	2088b03a 	or	r4,r4,r2
   10668:	1805d0fa 	srai	r2,r3,3
}
   1066c:	2084303a 	nor	r2,r4,r2
   10670:	dfc00017 	ldw	ra,0(sp)
   10674:	dec00104 	addi	sp,sp,4
   10678:	f800283a 	ret

0001067c <getBinHigh>:
		return 0b1111111;
	}
}
//Gets the upper binary representation of the character
int getBinHigh(char letter){
	int letter_inv = ~getBinaryLetter(letter); //Get the integer representation of the letter, the logic is easier to work with inverted
   1067c:	21003fcc 	andi	r4,r4,255
   10680:	2100201c 	xori	r4,r4,128
	default:
		return 0b1111111;
	}
}
//Gets the upper binary representation of the character
int getBinHigh(char letter){
   10684:	deffff04 	addi	sp,sp,-4
	int letter_inv = ~getBinaryLetter(letter); //Get the integer representation of the letter, the logic is easier to work with inverted
   10688:	213fe004 	addi	r4,r4,-128
	default:
		return 0b1111111;
	}
}
//Gets the upper binary representation of the character
int getBinHigh(char letter){
   1068c:	dfc00015 	stw	ra,0(sp)
	int letter_inv = ~getBinaryLetter(letter); //Get the integer representation of the letter, the logic is easier to work with inverted
   10690:	00105780 	call	10578 <getBinaryLetter>
   10694:	0086303a 	nor	r3,zero,r2
	int bit2 = (letter_inv & 0b0000100) >> 1 ; //This logic deals with bit shifting so the letters appear higher on the display
	int bit3 = (letter_inv & 0b0001000) << 3;
	int bit4 = (letter_inv & 0b0010000) << 1 ;
	int bit6 = (letter_inv & 0b1000000) >> 6;
	int res = (0b0000000) | bit2 | bit3 | bit4 | bit6;
	return ~res;//Uninvert the logic to get the correct representation
   10698:	1880010c 	andi	r2,r3,4
   1069c:	1009d07a 	srai	r4,r2,1
   106a0:	1880020c 	andi	r2,r3,8
   106a4:	100490fa 	slli	r2,r2,3
   106a8:	2084b03a 	or	r2,r4,r2
   106ac:	1900040c 	andi	r4,r3,16
   106b0:	18c0100c 	andi	r3,r3,64
   106b4:	1807d1ba 	srai	r3,r3,6
   106b8:	2109883a 	add	r4,r4,r4
   106bc:	1104b03a 	or	r2,r2,r4
}
   106c0:	10c4303a 	nor	r2,r2,r3
   106c4:	dfc00017 	ldw	ra,0(sp)
   106c8:	dec00104 	addi	sp,sp,4
   106cc:	f800283a 	ret

000106d0 <getBinHighHigh>:
//Gets the highest number representation of the given letter
int getBinHighHigh(char letter){
	int letter_inv = ~getBinaryLetter(letter); //Get the integer representation of the letter, it is easier to deal with the inverted logic
   106d0:	21003fcc 	andi	r4,r4,255
   106d4:	2100201c 	xori	r4,r4,128
	int bit6 = (letter_inv & 0b1000000) >> 6;
	int res = (0b0000000) | bit2 | bit3 | bit4 | bit6;
	return ~res;//Uninvert the logic to get the correct representation
}
//Gets the highest number representation of the given letter
int getBinHighHigh(char letter){
   106d8:	deffff04 	addi	sp,sp,-4
	int letter_inv = ~getBinaryLetter(letter); //Get the integer representation of the letter, it is easier to deal with the inverted logic
   106dc:	213fe004 	addi	r4,r4,-128
	int bit6 = (letter_inv & 0b1000000) >> 6;
	int res = (0b0000000) | bit2 | bit3 | bit4 | bit6;
	return ~res;//Uninvert the logic to get the correct representation
}
//Gets the highest number representation of the given letter
int getBinHighHigh(char letter){
   106e0:	dfc00015 	stw	ra,0(sp)
	int letter_inv = ~getBinaryLetter(letter); //Get the integer representation of the letter, it is easier to deal with the inverted logic
   106e4:	00105780 	call	10578 <getBinaryLetter>
	int bit3 = (letter_inv & 0b0001000) >> 3; //This logic deals with bit shifting so the letters appear higher on the display
	int res = (0b0000000) | bit3;
	return ~res; //Uninvert the logic to get the correct representation
   106e8:	0084303a 	nor	r2,zero,r2
   106ec:	1080020c 	andi	r2,r2,8
   106f0:	1005d0fa 	srai	r2,r2,3
}
   106f4:	0084303a 	nor	r2,zero,r2
   106f8:	dfc00017 	ldw	ra,0(sp)
   106fc:	dec00104 	addi	sp,sp,4
   10700:	f800283a 	ret

00010704 <print>:
	return let;
}
//Prints each of the letters out to the screen
void print(int let5, int let4, int let3, int let2, int let1, int let0){
	//Takes the binary value for each letter and places it on each of the six 7-segment displays
	IOWR_ALTERA_AVALON_PIO_DATA(HEX5_BASE, let5);
   10704:	008000b4 	movhi	r2,2
   10708:	10840804 	addi	r2,r2,4128
   1070c:	11000035 	stwio	r4,0(r2)
	IOWR_ALTERA_AVALON_PIO_DATA(HEX4_BASE, let4);
   10710:	008000b4 	movhi	r2,2
   10714:	10840c04 	addi	r2,r2,4144
   10718:	11400035 	stwio	r5,0(r2)
	IOWR_ALTERA_AVALON_PIO_DATA(HEX3_BASE, let3);
   1071c:	008000b4 	movhi	r2,2
   10720:	10841004 	addi	r2,r2,4160
   10724:	11800035 	stwio	r6,0(r2)
	IOWR_ALTERA_AVALON_PIO_DATA(HEX2_BASE, let2);
   10728:	008000b4 	movhi	r2,2
   1072c:	10841404 	addi	r2,r2,4176
   10730:	11c00035 	stwio	r7,0(r2)
	IOWR_ALTERA_AVALON_PIO_DATA(HEX1_BASE, let1);
   10734:	d8c00017 	ldw	r3,0(sp)
   10738:	008000b4 	movhi	r2,2
   1073c:	10841804 	addi	r2,r2,4192
   10740:	10c00035 	stwio	r3,0(r2)
	IOWR_ALTERA_AVALON_PIO_DATA(HEX0_BASE, let0);
   10744:	d8c00117 	ldw	r3,4(sp)
   10748:	008000b4 	movhi	r2,2
   1074c:	10841c04 	addi	r2,r2,4208
   10750:	10c00035 	stwio	r3,0(r2)
   10754:	f800283a 	ret

00010758 <print_letters>:
	return;
}
//Prints each of the letters out to the screen; takes into account the dancing letters
void print_letters(char let5, char let4, char let3, char let2, char let1, char let0, int state){
	//If the display is "muted," don't show anything
	if (disp_off){
   10758:	d0e27117 	ldw	r3,-30268(gp)
	IOWR_ALTERA_AVALON_PIO_DATA(HEX1_BASE, let1);
	IOWR_ALTERA_AVALON_PIO_DATA(HEX0_BASE, let0);
	return;
}
//Prints each of the letters out to the screen; takes into account the dancing letters
void print_letters(char let5, char let4, char let3, char let2, char let1, char let0, int state){
   1075c:	defff404 	addi	sp,sp,-48
   10760:	df000a15 	stw	fp,40(sp)
   10764:	ddc00915 	stw	r23,36(sp)
   10768:	dd800815 	stw	r22,32(sp)
   1076c:	dd400715 	stw	r21,28(sp)
   10770:	dd000615 	stw	r20,24(sp)
   10774:	dcc00515 	stw	r19,20(sp)
   10778:	dc400315 	stw	r17,12(sp)
   1077c:	dc000215 	stw	r16,8(sp)
   10780:	070000b4 	movhi	fp,2
   10784:	05c000b4 	movhi	r23,2
   10788:	058000b4 	movhi	r22,2
   1078c:	054000b4 	movhi	r21,2
   10790:	044000b4 	movhi	r17,2
   10794:	040000b4 	movhi	r16,2
   10798:	dfc00b15 	stw	ra,44(sp)
   1079c:	dc800415 	stw	r18,16(sp)
   107a0:	dd000c17 	ldw	r20,48(sp)
   107a4:	dcc00d17 	ldw	r19,52(sp)
   107a8:	d8800e17 	ldw	r2,56(sp)
   107ac:	e7040804 	addi	fp,fp,4128
   107b0:	bdc40c04 	addi	r23,r23,4144
   107b4:	b5841004 	addi	r22,r22,4160
   107b8:	ad441404 	addi	r21,r21,4176
   107bc:	8c441804 	addi	r17,r17,4192
   107c0:	84041c04 	addi	r16,r16,4208
	//If the display is "muted," don't show anything
	if (disp_off){
   107c4:	18000726 	beq	r3,zero,107e4 <print_letters+0x8c>
	return let;
}
//Prints each of the letters out to the screen
void print(int let5, int let4, int let3, int let2, int let1, int let0){
	//Takes the binary value for each letter and places it on each of the six 7-segment displays
	IOWR_ALTERA_AVALON_PIO_DATA(HEX5_BASE, let5);
   107c8:	00801fc4 	movi	r2,127
   107cc:	e0800035 	stwio	r2,0(fp)
	IOWR_ALTERA_AVALON_PIO_DATA(HEX4_BASE, let4);
   107d0:	b8800035 	stwio	r2,0(r23)
	IOWR_ALTERA_AVALON_PIO_DATA(HEX3_BASE, let3);
   107d4:	b0800035 	stwio	r2,0(r22)
	IOWR_ALTERA_AVALON_PIO_DATA(HEX2_BASE, let2);
   107d8:	a8800035 	stwio	r2,0(r21)
	IOWR_ALTERA_AVALON_PIO_DATA(HEX1_BASE, let1);
   107dc:	88800035 	stwio	r2,0(r17)
   107e0:	00007006 	br	109a4 <print_letters+0x24c>
   107e4:	31803fcc 	andi	r6,r6,255
   107e8:	39c03fcc 	andi	r7,r7,255
   107ec:	3180201c 	xori	r6,r6,128
   107f0:	39c0201c 	xori	r7,r7,128
   107f4:	21003fcc 	andi	r4,r4,255
   107f8:	2c803fcc 	andi	r18,r5,255
   107fc:	31bfe004 	addi	r6,r6,-128
   10800:	39ffe004 	addi	r7,r7,-128
   10804:	a5003fcc 	andi	r20,r20,255
   10808:	9cc03fcc 	andi	r19,r19,255
   1080c:	2100201c 	xori	r4,r4,128
   10810:	9480201c 	xori	r18,r18,128
   10814:	a500201c 	xori	r20,r20,128
   10818:	9cc0201c 	xori	r19,r19,128
	if (disp_off){
		print(getBin('!'), getBin('!'), getBin('!'), getBin('!'), getBin('!'), getBin('!'));
		return;
	}
	//State refers to which dancing state the characters are in
	switch (state){
   1081c:	00c00044 	movi	r3,1
   10820:	d9800015 	stw	r6,0(sp)
   10824:	d9c00115 	stw	r7,4(sp)
   10828:	213fe004 	addi	r4,r4,-128
   1082c:	94bfe004 	addi	r18,r18,-128
   10830:	a53fe004 	addi	r20,r20,-128
   10834:	9cffe004 	addi	r19,r19,-128
   10838:	10c02826 	beq	r2,r3,108dc <print_letters+0x184>
   1083c:	18801216 	blt	r3,r2,10888 <print_letters+0x130>
   10840:	1000481e 	bne	r2,zero,10964 <print_letters+0x20c>
	//This is the case where the letters are shifted down by the maximum amount on the display
	case 0:
		IOWR_ALTERA_AVALON_PIO_DATA(HEX5_BASE, getBinLowLow(let5));
   10844:	00105f40 	call	105f4 <getBinLowLow>
   10848:	e0800035 	stwio	r2,0(fp)
		IOWR_ALTERA_AVALON_PIO_DATA(HEX4_BASE, getBinLowLow(let4));
   1084c:	9009883a 	mov	r4,r18
   10850:	00105f40 	call	105f4 <getBinLowLow>
   10854:	b8800035 	stwio	r2,0(r23)
		IOWR_ALTERA_AVALON_PIO_DATA(HEX3_BASE, getBinLowLow(let3));
   10858:	d9000017 	ldw	r4,0(sp)
   1085c:	00105f40 	call	105f4 <getBinLowLow>
   10860:	b0800035 	stwio	r2,0(r22)
		IOWR_ALTERA_AVALON_PIO_DATA(HEX2_BASE, getBinLowLow(let2));
   10864:	d9000117 	ldw	r4,4(sp)
   10868:	00105f40 	call	105f4 <getBinLowLow>
   1086c:	a8800035 	stwio	r2,0(r21)
		IOWR_ALTERA_AVALON_PIO_DATA(HEX1_BASE, getBinLowLow(let1));
   10870:	a009883a 	mov	r4,r20
   10874:	00105f40 	call	105f4 <getBinLowLow>
   10878:	88800035 	stwio	r2,0(r17)
		IOWR_ALTERA_AVALON_PIO_DATA(HEX0_BASE, getBinLowLow(let0));
   1087c:	9809883a 	mov	r4,r19
   10880:	00105f40 	call	105f4 <getBinLowLow>
   10884:	00004706 	br	109a4 <print_letters+0x24c>
	if (disp_off){
		print(getBin('!'), getBin('!'), getBin('!'), getBin('!'), getBin('!'), getBin('!'));
		return;
	}
	//State refers to which dancing state the characters are in
	switch (state){
   10888:	00c00084 	movi	r3,2
   1088c:	10c02426 	beq	r2,r3,10920 <print_letters+0x1c8>
   10890:	00c000c4 	movi	r3,3
   10894:	10c0331e 	bne	r2,r3,10964 <print_letters+0x20c>
		IOWR_ALTERA_AVALON_PIO_DATA(HEX1_BASE, getBinaryLetter(let1));
		IOWR_ALTERA_AVALON_PIO_DATA(HEX0_BASE, getBinaryLetter(let0));
		return;
	//This is the case where the letters are shifted up a bit on the display
	case 3:
		IOWR_ALTERA_AVALON_PIO_DATA(HEX5_BASE, getBinHigh(let5));
   10898:	001067c0 	call	1067c <getBinHigh>
   1089c:	e0800035 	stwio	r2,0(fp)
		IOWR_ALTERA_AVALON_PIO_DATA(HEX4_BASE, getBinHigh(let4));
   108a0:	9009883a 	mov	r4,r18
   108a4:	001067c0 	call	1067c <getBinHigh>
   108a8:	b8800035 	stwio	r2,0(r23)
		IOWR_ALTERA_AVALON_PIO_DATA(HEX3_BASE, getBinHigh(let3));
   108ac:	d9000017 	ldw	r4,0(sp)
   108b0:	001067c0 	call	1067c <getBinHigh>
   108b4:	b0800035 	stwio	r2,0(r22)
		IOWR_ALTERA_AVALON_PIO_DATA(HEX2_BASE, getBinHigh(let2));
   108b8:	d9000117 	ldw	r4,4(sp)
   108bc:	001067c0 	call	1067c <getBinHigh>
   108c0:	a8800035 	stwio	r2,0(r21)
		IOWR_ALTERA_AVALON_PIO_DATA(HEX1_BASE, getBinHigh(let1));
   108c4:	a009883a 	mov	r4,r20
   108c8:	001067c0 	call	1067c <getBinHigh>
   108cc:	88800035 	stwio	r2,0(r17)
		IOWR_ALTERA_AVALON_PIO_DATA(HEX0_BASE, getBinHigh(let0));
   108d0:	9809883a 	mov	r4,r19
   108d4:	001067c0 	call	1067c <getBinHigh>
   108d8:	00003206 	br	109a4 <print_letters+0x24c>
		IOWR_ALTERA_AVALON_PIO_DATA(HEX1_BASE, getBinLowLow(let1));
		IOWR_ALTERA_AVALON_PIO_DATA(HEX0_BASE, getBinLowLow(let0));
		return;
	//This is the case where the letters are shifted down a bit on the display
	case 1:
		IOWR_ALTERA_AVALON_PIO_DATA(HEX5_BASE, getBinLow(let5));
   108dc:	00106280 	call	10628 <getBinLow>
   108e0:	e0800035 	stwio	r2,0(fp)
		IOWR_ALTERA_AVALON_PIO_DATA(HEX4_BASE, getBinLow(let4));
   108e4:	9009883a 	mov	r4,r18
   108e8:	00106280 	call	10628 <getBinLow>
   108ec:	b8800035 	stwio	r2,0(r23)
		IOWR_ALTERA_AVALON_PIO_DATA(HEX3_BASE, getBinLow(let3));
   108f0:	d9000017 	ldw	r4,0(sp)
   108f4:	00106280 	call	10628 <getBinLow>
   108f8:	b0800035 	stwio	r2,0(r22)
		IOWR_ALTERA_AVALON_PIO_DATA(HEX2_BASE, getBinLow(let2));
   108fc:	d9000117 	ldw	r4,4(sp)
   10900:	00106280 	call	10628 <getBinLow>
   10904:	a8800035 	stwio	r2,0(r21)
		IOWR_ALTERA_AVALON_PIO_DATA(HEX1_BASE, getBinLow(let1));
   10908:	a009883a 	mov	r4,r20
   1090c:	00106280 	call	10628 <getBinLow>
   10910:	88800035 	stwio	r2,0(r17)
		IOWR_ALTERA_AVALON_PIO_DATA(HEX0_BASE, getBinLow(let0));
   10914:	9809883a 	mov	r4,r19
   10918:	00106280 	call	10628 <getBinLow>
   1091c:	00002106 	br	109a4 <print_letters+0x24c>
		return;
	//This is the "main" case, where the full letters are displayed on the display
	case 2:
		IOWR_ALTERA_AVALON_PIO_DATA(HEX5_BASE, getBinaryLetter(let5));
   10920:	00105780 	call	10578 <getBinaryLetter>
   10924:	e0800035 	stwio	r2,0(fp)
		IOWR_ALTERA_AVALON_PIO_DATA(HEX4_BASE, getBinaryLetter(let4));
   10928:	9009883a 	mov	r4,r18
   1092c:	00105780 	call	10578 <getBinaryLetter>
   10930:	b8800035 	stwio	r2,0(r23)
		IOWR_ALTERA_AVALON_PIO_DATA(HEX3_BASE, getBinaryLetter(let3));
   10934:	d9000017 	ldw	r4,0(sp)
   10938:	00105780 	call	10578 <getBinaryLetter>
   1093c:	b0800035 	stwio	r2,0(r22)
		IOWR_ALTERA_AVALON_PIO_DATA(HEX2_BASE, getBinaryLetter(let2));
   10940:	d9000117 	ldw	r4,4(sp)
   10944:	00105780 	call	10578 <getBinaryLetter>
   10948:	a8800035 	stwio	r2,0(r21)
		IOWR_ALTERA_AVALON_PIO_DATA(HEX1_BASE, getBinaryLetter(let1));
   1094c:	a009883a 	mov	r4,r20
   10950:	00105780 	call	10578 <getBinaryLetter>
   10954:	88800035 	stwio	r2,0(r17)
		IOWR_ALTERA_AVALON_PIO_DATA(HEX0_BASE, getBinaryLetter(let0));
   10958:	9809883a 	mov	r4,r19
   1095c:	00105780 	call	10578 <getBinaryLetter>
   10960:	00001006 	br	109a4 <print_letters+0x24c>
		IOWR_ALTERA_AVALON_PIO_DATA(HEX1_BASE, getBinHigh(let1));
		IOWR_ALTERA_AVALON_PIO_DATA(HEX0_BASE, getBinHigh(let0));
		return;
	//This is the case where the letters are shifted by the maximum amount on the display
	default:
		IOWR_ALTERA_AVALON_PIO_DATA(HEX5_BASE, getBinHighHigh(let5));
   10964:	00106d00 	call	106d0 <getBinHighHigh>
   10968:	e0800035 	stwio	r2,0(fp)
		IOWR_ALTERA_AVALON_PIO_DATA(HEX4_BASE, getBinHighHigh(let4));
   1096c:	9009883a 	mov	r4,r18
   10970:	00106d00 	call	106d0 <getBinHighHigh>
   10974:	b8800035 	stwio	r2,0(r23)
		IOWR_ALTERA_AVALON_PIO_DATA(HEX3_BASE, getBinHighHigh(let3));
   10978:	d9000017 	ldw	r4,0(sp)
   1097c:	00106d00 	call	106d0 <getBinHighHigh>
   10980:	b0800035 	stwio	r2,0(r22)
		IOWR_ALTERA_AVALON_PIO_DATA(HEX2_BASE, getBinHighHigh(let2));
   10984:	d9000117 	ldw	r4,4(sp)
   10988:	00106d00 	call	106d0 <getBinHighHigh>
   1098c:	a8800035 	stwio	r2,0(r21)
		IOWR_ALTERA_AVALON_PIO_DATA(HEX1_BASE, getBinHighHigh(let1));
   10990:	a009883a 	mov	r4,r20
   10994:	00106d00 	call	106d0 <getBinHighHigh>
   10998:	88800035 	stwio	r2,0(r17)
		IOWR_ALTERA_AVALON_PIO_DATA(HEX0_BASE, getBinHighHigh(let0));
   1099c:	9809883a 	mov	r4,r19
   109a0:	00106d00 	call	106d0 <getBinHighHigh>
   109a4:	80800035 	stwio	r2,0(r16)
		return;
	}
}
   109a8:	dfc00b17 	ldw	ra,44(sp)
   109ac:	df000a17 	ldw	fp,40(sp)
   109b0:	ddc00917 	ldw	r23,36(sp)
   109b4:	dd800817 	ldw	r22,32(sp)
   109b8:	dd400717 	ldw	r21,28(sp)
   109bc:	dd000617 	ldw	r20,24(sp)
   109c0:	dcc00517 	ldw	r19,20(sp)
   109c4:	dc800417 	ldw	r18,16(sp)
   109c8:	dc400317 	ldw	r17,12(sp)
   109cc:	dc000217 	ldw	r16,8(sp)
   109d0:	dec00c04 	addi	sp,sp,48
   109d4:	f800283a 	ret

000109d8 <main>:
	// ACCELEROMTER INITIALISE
	alt_32 x_read;
	alt_32 y_read;
	alt_32 z_read;
	alt_up_accelerometer_spi_dev * acc_dev;
	acc_dev = alt_up_accelerometer_spi_open_dev("/dev/accelerometer_spi");
   109d8:	010000b4 	movhi	r4,2
    IOWR_ALTERA_AVALON_TIMER_PERIODH(TIMER_BASE, 0x0000);
    alt_irq_register(TIMER_IRQ, 0, isr);
    IOWR_ALTERA_AVALON_TIMER_CONTROL(TIMER_BASE, 0x0007);
}

int main(){
   109dc:	def9ec04 	addi	sp,sp,-6224
	// ACCELEROMTER INITIALISE
	alt_32 x_read;
	alt_32 y_read;
	alt_32 z_read;
	alt_up_accelerometer_spi_dev * acc_dev;
	acc_dev = alt_up_accelerometer_spi_open_dev("/dev/accelerometer_spi");
   109e0:	21351404 	addi	r4,r4,-11184
    IOWR_ALTERA_AVALON_TIMER_PERIODH(TIMER_BASE, 0x0000);
    alt_irq_register(TIMER_IRQ, 0, isr);
    IOWR_ALTERA_AVALON_TIMER_CONTROL(TIMER_BASE, 0x0007);
}

int main(){
   109e4:	dfc61315 	stw	ra,6220(sp)
   109e8:	df061215 	stw	fp,6216(sp)
   109ec:	ddc61115 	stw	r23,6212(sp)
   109f0:	dd861015 	stw	r22,6208(sp)
   109f4:	dd460f15 	stw	r21,6204(sp)
   109f8:	dd060e15 	stw	r20,6200(sp)
   109fc:	dcc60d15 	stw	r19,6196(sp)
   10a00:	dc860c15 	stw	r18,6192(sp)
   10a04:	dc460b15 	stw	r17,6188(sp)
   10a08:	dc060a15 	stw	r16,6184(sp)
	// ACCELEROMTER INITIALISE
	alt_32 x_read;
	alt_32 y_read;
	alt_32 z_read;
	alt_up_accelerometer_spi_dev * acc_dev;
	acc_dev = alt_up_accelerometer_spi_open_dev("/dev/accelerometer_spi");
   10a0c:	001d0580 	call	1d058 <alt_up_accelerometer_spi_open_dev>
	if (acc_dev == NULL) { // if return 1, check if the spi ip name is "accelerometer_spi"
   10a10:	1000e726 	beq	r2,zero,10db0 <main+0x3d8>
		return 1;
	}
	timer_init(sys_timer_isr);
   10a14:	01000074 	movhi	r4,1
   10a18:	21006f04 	addi	r4,r4,444
   10a1c:	1029883a 	mov	r20,r2
   10a20:	00104dc0 	call	104dc <timer_init>
	char accel_data_z[4*CHARLIM];
	char switch_data[4*CHARLIM];
	char button_data[4*CHARLIM];

	// SWITCH
	int switch_datain, switch_data_old = IORD_ALTERA_AVALON_PIO_DATA(SWITCH_BASE);
   10a24:	008000b4 	movhi	r2,2
   10a28:	10842404 	addi	r2,r2,4240
   10a2c:	10c00037 	ldwio	r3,0(r2)
	// BUTTON
	int button_datain, button_data_old = IORD_ALTERA_AVALON_PIO_DATA(BUTTON_BASE);
   10a30:	04c000b4 	movhi	r19,2
   10a34:	9cc42804 	addi	r19,r19,4256
   10a38:	98c00037 	ldwio	r3,0(r19)
		//alt_up_accelerometer_spi_read_z_axis(acc_dev, & z_read);

		out_y = 0;
		out_x = 0;

		filter_x[4] = filter_x[3];
   10a3c:	04c000b4 	movhi	r19,2


	int length = 0;
	int temp_length = 0;
	int x = -1;
	int count = 0;
   10a40:	0025883a 	mov	r18,zero
	alt_32 out_y, out_x;


	int length = 0;
	int temp_length = 0;
	int x = -1;
   10a44:	047fffc4 	movi	r17,-1
		//alt_up_accelerometer_spi_read_z_axis(acc_dev, & z_read);

		out_y = 0;
		out_x = 0;

		filter_x[4] = filter_x[3];
   10a48:	9cfac104 	addi	r19,r19,-5372
	int x = -1;
	int count = 0;

	while (1) {
		count++;
		IOWR_ALTERA_AVALON_PIO_DATA(LED_BASE, life);
   10a4c:	d0a00017 	ldw	r2,-32768(gp)
   10a50:	00c000b4 	movhi	r3,2
	int temp_length = 0;
	int x = -1;
	int count = 0;

	while (1) {
		count++;
   10a54:	94800044 	addi	r18,r18,1
		IOWR_ALTERA_AVALON_PIO_DATA(LED_BASE, life);
   10a58:	18c42004 	addi	r3,r3,4224
   10a5c:	18800035 	stwio	r2,0(r3)

		/* <--> SENDING DATA <--> */
		alt_up_accelerometer_spi_read_x_axis(acc_dev, & x_read);
   10a60:	d9460104 	addi	r5,sp,6148
   10a64:	a009883a 	mov	r4,r20
   10a68:	001d0b00 	call	1d0b0 <alt_up_accelerometer_spi_read_x_axis>
		alt_up_accelerometer_spi_read_y_axis(acc_dev, & y_read);
   10a6c:	d9460004 	addi	r5,sp,6144
   10a70:	a009883a 	mov	r4,r20
   10a74:	001d1080 	call	1d108 <alt_up_accelerometer_spi_read_y_axis>
		//alt_up_accelerometer_spi_read_z_axis(acc_dev, & z_read);

		out_y = 0;
		out_x = 0;

		filter_x[4] = filter_x[3];
   10a78:	98800317 	ldw	r2,12(r19)
		filter_x[3] = filter_x[2];
		filter_x[2] = filter_x[1];
		filter_x[1] = filter_x[0];
		filter_x[0] = x_read;

		filter_y[4] = filter_y[3];
   10a7c:	040000b4 	movhi	r16,2
   10a80:	843abc04 	addi	r16,r16,-5392
		//alt_up_accelerometer_spi_read_z_axis(acc_dev, & z_read);

		out_y = 0;
		out_x = 0;

		filter_x[4] = filter_x[3];
   10a84:	98800415 	stw	r2,16(r19)
		filter_x[3] = filter_x[2];
   10a88:	98800217 	ldw	r2,8(r19)
		filter_y[1] = filter_y[0];
		filter_y[0] = y_read;

		for ( int i = 0; i < 5; i++ )
		{
			out_x += h[i]*filter_x[i];
   10a8c:	034000b4 	movhi	r13,2

		filter_y[4] = filter_y[3];
		filter_y[3] = filter_y[2];
		filter_y[2] = filter_y[1];
		filter_y[1] = filter_y[0];
		filter_y[0] = y_read;
   10a90:	0013883a 	mov	r9,zero

		out_y = 0;
		out_x = 0;

		filter_x[4] = filter_x[3];
		filter_x[3] = filter_x[2];
   10a94:	98800315 	stw	r2,12(r19)
		filter_x[2] = filter_x[1];
   10a98:	98800117 	ldw	r2,4(r19)
		alt_up_accelerometer_spi_read_x_axis(acc_dev, & x_read);
		alt_up_accelerometer_spi_read_y_axis(acc_dev, & y_read);
		//alt_up_accelerometer_spi_read_z_axis(acc_dev, & z_read);

		out_y = 0;
		out_x = 0;
   10a9c:	0039883a 	mov	fp,zero
		/* <--> SENDING DATA <--> */
		alt_up_accelerometer_spi_read_x_axis(acc_dev, & x_read);
		alt_up_accelerometer_spi_read_y_axis(acc_dev, & y_read);
		//alt_up_accelerometer_spi_read_z_axis(acc_dev, & z_read);

		out_y = 0;
   10aa0:	002f883a 	mov	r23,zero
		out_x = 0;

		filter_x[4] = filter_x[3];
		filter_x[3] = filter_x[2];
		filter_x[2] = filter_x[1];
   10aa4:	98800215 	stw	r2,8(r19)
		filter_x[1] = filter_x[0];
   10aa8:	98800017 	ldw	r2,0(r19)
		filter_y[1] = filter_y[0];
		filter_y[0] = y_read;

		for ( int i = 0; i < 5; i++ )
		{
			out_x += h[i]*filter_x[i];
   10aac:	6b752604 	addi	r13,r13,-11112
		filter_y[3] = filter_y[2];
		filter_y[2] = filter_y[1];
		filter_y[1] = filter_y[0];
		filter_y[0] = y_read;

		for ( int i = 0; i < 5; i++ )
   10ab0:	03000504 	movi	r12,20
		out_x = 0;

		filter_x[4] = filter_x[3];
		filter_x[3] = filter_x[2];
		filter_x[2] = filter_x[1];
		filter_x[1] = filter_x[0];
   10ab4:	98800115 	stw	r2,4(r19)
		filter_x[0] = x_read;
   10ab8:	d8860117 	ldw	r2,6148(sp)
   10abc:	98800015 	stw	r2,0(r19)

		filter_y[4] = filter_y[3];
   10ac0:	80800317 	ldw	r2,12(r16)
   10ac4:	80800415 	stw	r2,16(r16)
		filter_y[3] = filter_y[2];
   10ac8:	80800217 	ldw	r2,8(r16)
   10acc:	80800315 	stw	r2,12(r16)
		filter_y[2] = filter_y[1];
   10ad0:	80800117 	ldw	r2,4(r16)
   10ad4:	80800215 	stw	r2,8(r16)
		filter_y[1] = filter_y[0];
   10ad8:	80800017 	ldw	r2,0(r16)
   10adc:	80800115 	stw	r2,4(r16)
		filter_y[0] = y_read;
   10ae0:	d8860017 	ldw	r2,6144(sp)
   10ae4:	80800015 	stw	r2,0(r16)

		for ( int i = 0; i < 5; i++ )
		{
			out_x += h[i]*filter_x[i];
   10ae8:	4a45883a 	add	r2,r9,r9
   10aec:	00c000b4 	movhi	r3,2
   10af0:	1345883a 	add	r2,r2,r13
   10af4:	18fac104 	addi	r3,r3,-5372
   10af8:	15800017 	ldw	r22,0(r2)
   10afc:	15400117 	ldw	r21,4(r2)
   10b00:	48c5883a 	add	r2,r9,r3
   10b04:	11000017 	ldw	r4,0(r2)
   10b08:	db060815 	stw	r12,6176(sp)
   10b0c:	db460915 	stw	r13,6180(sp)
   10b10:	da460415 	stw	r9,6160(sp)
   10b14:	00121300 	call	12130 <__floatsidf>
   10b18:	b00d883a 	mov	r6,r22
   10b1c:	a80f883a 	mov	r7,r21
   10b20:	180b883a 	mov	r5,r3
   10b24:	1009883a 	mov	r4,r2
   10b28:	00118440 	call	11844 <__muldf3>
   10b2c:	e009883a 	mov	r4,fp
   10b30:	d8c60315 	stw	r3,6156(sp)
   10b34:	d8860215 	stw	r2,6152(sp)
   10b38:	00121300 	call	12130 <__floatsidf>
   10b3c:	db860217 	ldw	r14,6152(sp)
   10b40:	d9460317 	ldw	r5,6156(sp)
   10b44:	100d883a 	mov	r6,r2
   10b48:	7009883a 	mov	r4,r14
   10b4c:	180f883a 	mov	r7,r3
   10b50:	0010f980 	call	10f98 <__adddf3>
   10b54:	180b883a 	mov	r5,r3
   10b58:	1009883a 	mov	r4,r2
   10b5c:	00120b00 	call	120b0 <__fixdfsi>
			out_y += h[i]*filter_y[i];
   10b60:	da460417 	ldw	r9,6160(sp)
		filter_y[1] = filter_y[0];
		filter_y[0] = y_read;

		for ( int i = 0; i < 5; i++ )
		{
			out_x += h[i]*filter_x[i];
   10b64:	1039883a 	mov	fp,r2
			out_y += h[i]*filter_y[i];
   10b68:	4c05883a 	add	r2,r9,r16
   10b6c:	11000017 	ldw	r4,0(r2)
   10b70:	00121300 	call	12130 <__floatsidf>
   10b74:	b00d883a 	mov	r6,r22
   10b78:	a80f883a 	mov	r7,r21
   10b7c:	180b883a 	mov	r5,r3
   10b80:	1009883a 	mov	r4,r2
   10b84:	00118440 	call	11844 <__muldf3>
   10b88:	b809883a 	mov	r4,r23
   10b8c:	102d883a 	mov	r22,r2
   10b90:	182b883a 	mov	r21,r3
   10b94:	00121300 	call	12130 <__floatsidf>
   10b98:	100d883a 	mov	r6,r2
   10b9c:	180f883a 	mov	r7,r3
   10ba0:	b009883a 	mov	r4,r22
   10ba4:	a80b883a 	mov	r5,r21
   10ba8:	0010f980 	call	10f98 <__adddf3>
   10bac:	1009883a 	mov	r4,r2
   10bb0:	180b883a 	mov	r5,r3
   10bb4:	00120b00 	call	120b0 <__fixdfsi>
   10bb8:	da460417 	ldw	r9,6160(sp)
		filter_y[3] = filter_y[2];
		filter_y[2] = filter_y[1];
		filter_y[1] = filter_y[0];
		filter_y[0] = y_read;

		for ( int i = 0; i < 5; i++ )
   10bbc:	db060817 	ldw	r12,6176(sp)
		{
			out_x += h[i]*filter_x[i];
			out_y += h[i]*filter_y[i];
   10bc0:	102f883a 	mov	r23,r2
   10bc4:	4a400104 	addi	r9,r9,4
		filter_y[3] = filter_y[2];
		filter_y[2] = filter_y[1];
		filter_y[1] = filter_y[0];
		filter_y[0] = y_read;

		for ( int i = 0; i < 5; i++ )
   10bc8:	db460917 	ldw	r13,6180(sp)
   10bcc:	4b3fc61e 	bne	r9,r12,10ae8 <_gp+0xfffeaa2c>
			out_x += h[i]*filter_x[i];
			out_y += h[i]*filter_y[i];
		}

		//sprintf(accel_data_z, "%x", z_read);
		sprintf(accel_data_x, "%x", out_x);
   10bd0:	014000b4 	movhi	r5,2
   10bd4:	e00d883a 	mov	r6,fp
   10bd8:	d9050004 	addi	r4,sp,5120
   10bdc:	29751a04 	addi	r5,r5,-11160
   10be0:	0012d7c0 	call	12d7c <sprintf>
		sprintf(accel_data_y, "%x", out_y);
   10be4:	014000b4 	movhi	r5,2
   10be8:	b80d883a 	mov	r6,r23
   10bec:	29751a04 	addi	r5,r5,-11160
   10bf0:	d9040004 	addi	r4,sp,4096
   10bf4:	0012d7c0 	call	12d7c <sprintf>

		//SWITCH
		//switch_datain = IORD_ALTERA_AVALON_PIO_DATA(SWITCH_BASE);
		//output_switch( switch_datain, switch_data_old );
		//switch_data_old = switch_datain;
		switch_datain = IORD_ALTERA_AVALON_PIO_DATA(SWITCH_BASE);
   10bf8:	008000b4 	movhi	r2,2
   10bfc:	10842404 	addi	r2,r2,4240
   10c00:	11800037 	ldwio	r6,0(r2)
		sprintf(switch_data, "%x", switch_datain);
   10c04:	014000b4 	movhi	r5,2
   10c08:	29751a04 	addi	r5,r5,-11160
   10c0c:	d9030004 	addi	r4,sp,3072
   10c10:	0012d7c0 	call	12d7c <sprintf>

		// BUTTON
		//button_datain = IORD_ALTERA_AVALON_PIO_DATA(BUTTON_BASE);
		//output_button( button_datain, button_data_old );
		//button_data_old = button_datain;
		button_datain = IORD_ALTERA_AVALON_PIO_DATA(BUTTON_BASE);
   10c14:	00c000b4 	movhi	r3,2
   10c18:	18c42804 	addi	r3,r3,4256
   10c1c:	19800037 	ldwio	r6,0(r3)
		sprintf(button_data, "%x", button_datain);
   10c20:	014000b4 	movhi	r5,2
   10c24:	29751a04 	addi	r5,r5,-11160
   10c28:	d9020004 	addi	r4,sp,2048
   10c2c:	0012d7c0 	call	12d7c <sprintf>

		print_data(accel_data_x, accel_data_y, switch_data, button_data);
   10c30:	d9c20004 	addi	r7,sp,2048
   10c34:	d9830004 	addi	r6,sp,3072
   10c38:	d9440004 	addi	r5,sp,4096
   10c3c:	d9050004 	addi	r4,sp,5120
   10c40:	001023c0 	call	1023c <print_data>

		// HEX7 display
		char temp_data[4*CHARLIM];
		char to_print[4*CHARLIM];

		strcpy(to_print, read_chars());
   10c44:	001044c0 	call	1044c <read_chars>
   10c48:	100b883a 	mov	r5,r2
   10c4c:	d809883a 	mov	r4,sp
   10c50:	0012f4c0 	call	12f4c <strcpy>
		strcpy(temp_data, to_print);
   10c54:	d80b883a 	mov	r5,sp
   10c58:	d9010004 	addi	r4,sp,1024
   10c5c:	0012f4c0 	call	12f4c <strcpy>
		//alt_putstr( to_print );

		if (count == 5)
   10c60:	00800144 	movi	r2,5
   10c64:	9080021e 	bne	r18,r2,10c70 <main+0x298>
		{
			x++;
   10c68:	8c400044 	addi	r17,r17,1
			count = 0;
   10c6c:	0025883a 	mov	r18,zero
   10c70:	01c000b4 	movhi	r7,2
   10c74:	018000b4 	movhi	r6,2
   10c78:	00c000b4 	movhi	r3,2
   10c7c:	058000b4 	movhi	r22,2
   10c80:	054000b4 	movhi	r21,2
   10c84:	040000b4 	movhi	r16,2
		}
		if (x > 40)
   10c88:	00800a04 	movi	r2,40
   10c8c:	39c40804 	addi	r7,r7,4128
   10c90:	31840c04 	addi	r6,r6,4144
   10c94:	18c41004 	addi	r3,r3,4160
   10c98:	b5841404 	addi	r22,r22,4176
   10c9c:	ad441804 	addi	r21,r21,4192
   10ca0:	84041c04 	addi	r16,r16,4208
   10ca4:	1440070e 	bge	r2,r17,10cc4 <main+0x2ec>
	return let;
}
//Prints each of the letters out to the screen
void print(int let5, int let4, int let3, int let2, int let1, int let0){
	//Takes the binary value for each letter and places it on each of the six 7-segment displays
	IOWR_ALTERA_AVALON_PIO_DATA(HEX5_BASE, let5);
   10ca8:	00801fc4 	movi	r2,127
   10cac:	38800035 	stwio	r2,0(r7)
	IOWR_ALTERA_AVALON_PIO_DATA(HEX4_BASE, let4);
   10cb0:	30800035 	stwio	r2,0(r6)
	IOWR_ALTERA_AVALON_PIO_DATA(HEX3_BASE, let3);
   10cb4:	18800035 	stwio	r2,0(r3)
	IOWR_ALTERA_AVALON_PIO_DATA(HEX2_BASE, let2);
   10cb8:	b0800035 	stwio	r2,0(r22)
	IOWR_ALTERA_AVALON_PIO_DATA(HEX1_BASE, let1);
   10cbc:	a8800035 	stwio	r2,0(r21)
   10cc0:	00003906 	br	10da8 <main+0x3d0>
		if (x > 40)
		{
			print(getBin('!'), getBin('!'), getBin('!'), getBin('!'), getBin('!'), getBin('!'));
		}
		else{
			print(getBin(to_print[x%20]), getBin(to_print[(x+1)%20]), getBin(to_print[(x+2)%20]), getBin(to_print[(x+3)%20]), getBin(to_print[(x+4)%20]), getBin(to_print[(x+5)%20]));
   10cc4:	01400504 	movi	r5,20
   10cc8:	8809883a 	mov	r4,r17
   10ccc:	d9c60515 	stw	r7,6164(sp)
   10cd0:	d8c60715 	stw	r3,6172(sp)
   10cd4:	d9860615 	stw	r6,6168(sp)
   10cd8:	0010e680 	call	10e68 <__modsi3>
   10cdc:	d885883a 	add	r2,sp,r2
   10ce0:	11000007 	ldb	r4,0(r2)
   10ce4:	001054c0 	call	1054c <getBin>
   10ce8:	01400504 	movi	r5,20
   10cec:	89000044 	addi	r4,r17,1
   10cf0:	d8860915 	stw	r2,6180(sp)
   10cf4:	0010e680 	call	10e68 <__modsi3>
   10cf8:	d885883a 	add	r2,sp,r2
   10cfc:	11000007 	ldb	r4,0(r2)
   10d00:	001054c0 	call	1054c <getBin>
   10d04:	01400504 	movi	r5,20
   10d08:	89000084 	addi	r4,r17,2
   10d0c:	d8860815 	stw	r2,6176(sp)
   10d10:	0010e680 	call	10e68 <__modsi3>
   10d14:	d885883a 	add	r2,sp,r2
   10d18:	11000007 	ldb	r4,0(r2)
   10d1c:	001054c0 	call	1054c <getBin>
   10d20:	01400504 	movi	r5,20
   10d24:	890000c4 	addi	r4,r17,3
   10d28:	d8860315 	stw	r2,6156(sp)
   10d2c:	0010e680 	call	10e68 <__modsi3>
   10d30:	d885883a 	add	r2,sp,r2
   10d34:	11000007 	ldb	r4,0(r2)
   10d38:	001054c0 	call	1054c <getBin>
   10d3c:	01400504 	movi	r5,20
   10d40:	89000104 	addi	r4,r17,4
   10d44:	d8860215 	stw	r2,6152(sp)
   10d48:	0010e680 	call	10e68 <__modsi3>
   10d4c:	d885883a 	add	r2,sp,r2
   10d50:	11000007 	ldb	r4,0(r2)
   10d54:	001054c0 	call	1054c <getBin>
   10d58:	01400504 	movi	r5,20
   10d5c:	89000144 	addi	r4,r17,5
   10d60:	d8860415 	stw	r2,6160(sp)
   10d64:	0010e680 	call	10e68 <__modsi3>
   10d68:	d885883a 	add	r2,sp,r2
   10d6c:	11000007 	ldb	r4,0(r2)
   10d70:	001054c0 	call	1054c <getBin>
	return let;
}
//Prints each of the letters out to the screen
void print(int let5, int let4, int let3, int let2, int let1, int let0){
	//Takes the binary value for each letter and places it on each of the six 7-segment displays
	IOWR_ALTERA_AVALON_PIO_DATA(HEX5_BASE, let5);
   10d74:	d9c60517 	ldw	r7,6164(sp)
   10d78:	db460917 	ldw	r13,6180(sp)
   10d7c:	3b400035 	stwio	r13,0(r7)
	IOWR_ALTERA_AVALON_PIO_DATA(HEX4_BASE, let4);
   10d80:	d9860617 	ldw	r6,6168(sp)
   10d84:	db060817 	ldw	r12,6176(sp)
   10d88:	33000035 	stwio	r12,0(r6)
	IOWR_ALTERA_AVALON_PIO_DATA(HEX3_BASE, let3);
   10d8c:	d8c60717 	ldw	r3,6172(sp)
   10d90:	dac60317 	ldw	r11,6156(sp)
   10d94:	1ac00035 	stwio	r11,0(r3)
	IOWR_ALTERA_AVALON_PIO_DATA(HEX2_BASE, let2);
   10d98:	da860217 	ldw	r10,6152(sp)
   10d9c:	b2800035 	stwio	r10,0(r22)
	IOWR_ALTERA_AVALON_PIO_DATA(HEX1_BASE, let1);
   10da0:	da460417 	ldw	r9,6160(sp)
   10da4:	aa400035 	stwio	r9,0(r21)
	IOWR_ALTERA_AVALON_PIO_DATA(HEX0_BASE, let0);
   10da8:	80800035 	stwio	r2,0(r16)
		}
		else{
			print(getBin(to_print[x%20]), getBin(to_print[(x+1)%20]), getBin(to_print[(x+2)%20]), getBin(to_print[(x+3)%20]), getBin(to_print[(x+4)%20]), getBin(to_print[(x+5)%20]));
		}

	}
   10dac:	003f2706 	br	10a4c <_gp+0xfffea990>
	return 0;
}
   10db0:	00800044 	movi	r2,1
   10db4:	dfc61317 	ldw	ra,6220(sp)
   10db8:	df061217 	ldw	fp,6216(sp)
   10dbc:	ddc61117 	ldw	r23,6212(sp)
   10dc0:	dd861017 	ldw	r22,6208(sp)
   10dc4:	dd460f17 	ldw	r21,6204(sp)
   10dc8:	dd060e17 	ldw	r20,6200(sp)
   10dcc:	dcc60d17 	ldw	r19,6196(sp)
   10dd0:	dc860c17 	ldw	r18,6192(sp)
   10dd4:	dc460b17 	ldw	r17,6188(sp)
   10dd8:	dc060a17 	ldw	r16,6184(sp)
   10ddc:	dec61404 	addi	sp,sp,6224
   10de0:	f800283a 	ret

00010de4 <__divsi3>:
   10de4:	20001b16 	blt	r4,zero,10e54 <__divsi3+0x70>
   10de8:	000f883a 	mov	r7,zero
   10dec:	28001616 	blt	r5,zero,10e48 <__divsi3+0x64>
   10df0:	200d883a 	mov	r6,r4
   10df4:	29001a2e 	bgeu	r5,r4,10e60 <__divsi3+0x7c>
   10df8:	00800804 	movi	r2,32
   10dfc:	00c00044 	movi	r3,1
   10e00:	00000106 	br	10e08 <__divsi3+0x24>
   10e04:	10000d26 	beq	r2,zero,10e3c <__divsi3+0x58>
   10e08:	294b883a 	add	r5,r5,r5
   10e0c:	10bfffc4 	addi	r2,r2,-1
   10e10:	18c7883a 	add	r3,r3,r3
   10e14:	293ffb36 	bltu	r5,r4,10e04 <_gp+0xfffead48>
   10e18:	0005883a 	mov	r2,zero
   10e1c:	18000726 	beq	r3,zero,10e3c <__divsi3+0x58>
   10e20:	0005883a 	mov	r2,zero
   10e24:	31400236 	bltu	r6,r5,10e30 <__divsi3+0x4c>
   10e28:	314dc83a 	sub	r6,r6,r5
   10e2c:	10c4b03a 	or	r2,r2,r3
   10e30:	1806d07a 	srli	r3,r3,1
   10e34:	280ad07a 	srli	r5,r5,1
   10e38:	183ffa1e 	bne	r3,zero,10e24 <_gp+0xfffead68>
   10e3c:	38000126 	beq	r7,zero,10e44 <__divsi3+0x60>
   10e40:	0085c83a 	sub	r2,zero,r2
   10e44:	f800283a 	ret
   10e48:	014bc83a 	sub	r5,zero,r5
   10e4c:	39c0005c 	xori	r7,r7,1
   10e50:	003fe706 	br	10df0 <_gp+0xfffead34>
   10e54:	0109c83a 	sub	r4,zero,r4
   10e58:	01c00044 	movi	r7,1
   10e5c:	003fe306 	br	10dec <_gp+0xfffead30>
   10e60:	00c00044 	movi	r3,1
   10e64:	003fee06 	br	10e20 <_gp+0xfffead64>

00010e68 <__modsi3>:
   10e68:	20001716 	blt	r4,zero,10ec8 <__modsi3+0x60>
   10e6c:	000f883a 	mov	r7,zero
   10e70:	2005883a 	mov	r2,r4
   10e74:	28001216 	blt	r5,zero,10ec0 <__modsi3+0x58>
   10e78:	2900162e 	bgeu	r5,r4,10ed4 <__modsi3+0x6c>
   10e7c:	01800804 	movi	r6,32
   10e80:	00c00044 	movi	r3,1
   10e84:	00000106 	br	10e8c <__modsi3+0x24>
   10e88:	30000a26 	beq	r6,zero,10eb4 <__modsi3+0x4c>
   10e8c:	294b883a 	add	r5,r5,r5
   10e90:	31bfffc4 	addi	r6,r6,-1
   10e94:	18c7883a 	add	r3,r3,r3
   10e98:	293ffb36 	bltu	r5,r4,10e88 <_gp+0xfffeadcc>
   10e9c:	18000526 	beq	r3,zero,10eb4 <__modsi3+0x4c>
   10ea0:	1806d07a 	srli	r3,r3,1
   10ea4:	11400136 	bltu	r2,r5,10eac <__modsi3+0x44>
   10ea8:	1145c83a 	sub	r2,r2,r5
   10eac:	280ad07a 	srli	r5,r5,1
   10eb0:	183ffb1e 	bne	r3,zero,10ea0 <_gp+0xfffeade4>
   10eb4:	38000126 	beq	r7,zero,10ebc <__modsi3+0x54>
   10eb8:	0085c83a 	sub	r2,zero,r2
   10ebc:	f800283a 	ret
   10ec0:	014bc83a 	sub	r5,zero,r5
   10ec4:	003fec06 	br	10e78 <_gp+0xfffeadbc>
   10ec8:	0109c83a 	sub	r4,zero,r4
   10ecc:	01c00044 	movi	r7,1
   10ed0:	003fe706 	br	10e70 <_gp+0xfffeadb4>
   10ed4:	00c00044 	movi	r3,1
   10ed8:	003ff106 	br	10ea0 <_gp+0xfffeade4>

00010edc <__udivsi3>:
   10edc:	200d883a 	mov	r6,r4
   10ee0:	2900152e 	bgeu	r5,r4,10f38 <__udivsi3+0x5c>
   10ee4:	28001416 	blt	r5,zero,10f38 <__udivsi3+0x5c>
   10ee8:	00800804 	movi	r2,32
   10eec:	00c00044 	movi	r3,1
   10ef0:	00000206 	br	10efc <__udivsi3+0x20>
   10ef4:	10000e26 	beq	r2,zero,10f30 <__udivsi3+0x54>
   10ef8:	28000516 	blt	r5,zero,10f10 <__udivsi3+0x34>
   10efc:	294b883a 	add	r5,r5,r5
   10f00:	10bfffc4 	addi	r2,r2,-1
   10f04:	18c7883a 	add	r3,r3,r3
   10f08:	293ffa36 	bltu	r5,r4,10ef4 <_gp+0xfffeae38>
   10f0c:	18000826 	beq	r3,zero,10f30 <__udivsi3+0x54>
   10f10:	0005883a 	mov	r2,zero
   10f14:	31400236 	bltu	r6,r5,10f20 <__udivsi3+0x44>
   10f18:	314dc83a 	sub	r6,r6,r5
   10f1c:	10c4b03a 	or	r2,r2,r3
   10f20:	1806d07a 	srli	r3,r3,1
   10f24:	280ad07a 	srli	r5,r5,1
   10f28:	183ffa1e 	bne	r3,zero,10f14 <_gp+0xfffeae58>
   10f2c:	f800283a 	ret
   10f30:	0005883a 	mov	r2,zero
   10f34:	f800283a 	ret
   10f38:	00c00044 	movi	r3,1
   10f3c:	003ff406 	br	10f10 <_gp+0xfffeae54>

00010f40 <__umodsi3>:
   10f40:	2005883a 	mov	r2,r4
   10f44:	2900122e 	bgeu	r5,r4,10f90 <__umodsi3+0x50>
   10f48:	28001116 	blt	r5,zero,10f90 <__umodsi3+0x50>
   10f4c:	01800804 	movi	r6,32
   10f50:	00c00044 	movi	r3,1
   10f54:	00000206 	br	10f60 <__umodsi3+0x20>
   10f58:	30000c26 	beq	r6,zero,10f8c <__umodsi3+0x4c>
   10f5c:	28000516 	blt	r5,zero,10f74 <__umodsi3+0x34>
   10f60:	294b883a 	add	r5,r5,r5
   10f64:	31bfffc4 	addi	r6,r6,-1
   10f68:	18c7883a 	add	r3,r3,r3
   10f6c:	293ffa36 	bltu	r5,r4,10f58 <_gp+0xfffeae9c>
   10f70:	18000626 	beq	r3,zero,10f8c <__umodsi3+0x4c>
   10f74:	1806d07a 	srli	r3,r3,1
   10f78:	11400136 	bltu	r2,r5,10f80 <__umodsi3+0x40>
   10f7c:	1145c83a 	sub	r2,r2,r5
   10f80:	280ad07a 	srli	r5,r5,1
   10f84:	183ffb1e 	bne	r3,zero,10f74 <_gp+0xfffeaeb8>
   10f88:	f800283a 	ret
   10f8c:	f800283a 	ret
   10f90:	00c00044 	movi	r3,1
   10f94:	003ff706 	br	10f74 <_gp+0xfffeaeb8>

00010f98 <__adddf3>:
   10f98:	02c00434 	movhi	r11,16
   10f9c:	5affffc4 	addi	r11,r11,-1
   10fa0:	2806d7fa 	srli	r3,r5,31
   10fa4:	2ad4703a 	and	r10,r5,r11
   10fa8:	3ad2703a 	and	r9,r7,r11
   10fac:	3804d53a 	srli	r2,r7,20
   10fb0:	3018d77a 	srli	r12,r6,29
   10fb4:	280ad53a 	srli	r5,r5,20
   10fb8:	501490fa 	slli	r10,r10,3
   10fbc:	2010d77a 	srli	r8,r4,29
   10fc0:	481290fa 	slli	r9,r9,3
   10fc4:	380ed7fa 	srli	r7,r7,31
   10fc8:	defffb04 	addi	sp,sp,-20
   10fcc:	dc800215 	stw	r18,8(sp)
   10fd0:	dc400115 	stw	r17,4(sp)
   10fd4:	dc000015 	stw	r16,0(sp)
   10fd8:	dfc00415 	stw	ra,16(sp)
   10fdc:	dcc00315 	stw	r19,12(sp)
   10fe0:	1c803fcc 	andi	r18,r3,255
   10fe4:	2c01ffcc 	andi	r16,r5,2047
   10fe8:	5210b03a 	or	r8,r10,r8
   10fec:	202290fa 	slli	r17,r4,3
   10ff0:	1081ffcc 	andi	r2,r2,2047
   10ff4:	4b12b03a 	or	r9,r9,r12
   10ff8:	300c90fa 	slli	r6,r6,3
   10ffc:	91c07526 	beq	r18,r7,111d4 <__adddf3+0x23c>
   11000:	8087c83a 	sub	r3,r16,r2
   11004:	00c0ab0e 	bge	zero,r3,112b4 <__adddf3+0x31c>
   11008:	10002a1e 	bne	r2,zero,110b4 <__adddf3+0x11c>
   1100c:	4984b03a 	or	r2,r9,r6
   11010:	1000961e 	bne	r2,zero,1126c <__adddf3+0x2d4>
   11014:	888001cc 	andi	r2,r17,7
   11018:	10000726 	beq	r2,zero,11038 <__adddf3+0xa0>
   1101c:	888003cc 	andi	r2,r17,15
   11020:	00c00104 	movi	r3,4
   11024:	10c00426 	beq	r2,r3,11038 <__adddf3+0xa0>
   11028:	88c7883a 	add	r3,r17,r3
   1102c:	1c63803a 	cmpltu	r17,r3,r17
   11030:	4451883a 	add	r8,r8,r17
   11034:	1823883a 	mov	r17,r3
   11038:	4080202c 	andhi	r2,r8,128
   1103c:	10005926 	beq	r2,zero,111a4 <__adddf3+0x20c>
   11040:	84000044 	addi	r16,r16,1
   11044:	0081ffc4 	movi	r2,2047
   11048:	8080ba26 	beq	r16,r2,11334 <__adddf3+0x39c>
   1104c:	00bfe034 	movhi	r2,65408
   11050:	10bfffc4 	addi	r2,r2,-1
   11054:	4090703a 	and	r8,r8,r2
   11058:	4004977a 	slli	r2,r8,29
   1105c:	4010927a 	slli	r8,r8,9
   11060:	8822d0fa 	srli	r17,r17,3
   11064:	8401ffcc 	andi	r16,r16,2047
   11068:	4010d33a 	srli	r8,r8,12
   1106c:	9007883a 	mov	r3,r18
   11070:	1444b03a 	or	r2,r2,r17
   11074:	8401ffcc 	andi	r16,r16,2047
   11078:	8020953a 	slli	r16,r16,20
   1107c:	18c03fcc 	andi	r3,r3,255
   11080:	01000434 	movhi	r4,16
   11084:	213fffc4 	addi	r4,r4,-1
   11088:	180697fa 	slli	r3,r3,31
   1108c:	4110703a 	and	r8,r8,r4
   11090:	4410b03a 	or	r8,r8,r16
   11094:	40c6b03a 	or	r3,r8,r3
   11098:	dfc00417 	ldw	ra,16(sp)
   1109c:	dcc00317 	ldw	r19,12(sp)
   110a0:	dc800217 	ldw	r18,8(sp)
   110a4:	dc400117 	ldw	r17,4(sp)
   110a8:	dc000017 	ldw	r16,0(sp)
   110ac:	dec00504 	addi	sp,sp,20
   110b0:	f800283a 	ret
   110b4:	0081ffc4 	movi	r2,2047
   110b8:	80bfd626 	beq	r16,r2,11014 <_gp+0xfffeaf58>
   110bc:	4a402034 	orhi	r9,r9,128
   110c0:	00800e04 	movi	r2,56
   110c4:	10c09f16 	blt	r2,r3,11344 <__adddf3+0x3ac>
   110c8:	008007c4 	movi	r2,31
   110cc:	10c0c216 	blt	r2,r3,113d8 <__adddf3+0x440>
   110d0:	00800804 	movi	r2,32
   110d4:	10c5c83a 	sub	r2,r2,r3
   110d8:	488a983a 	sll	r5,r9,r2
   110dc:	30c8d83a 	srl	r4,r6,r3
   110e0:	3084983a 	sll	r2,r6,r2
   110e4:	48c6d83a 	srl	r3,r9,r3
   110e8:	290cb03a 	or	r6,r5,r4
   110ec:	1004c03a 	cmpne	r2,r2,zero
   110f0:	308cb03a 	or	r6,r6,r2
   110f4:	898dc83a 	sub	r6,r17,r6
   110f8:	89a3803a 	cmpltu	r17,r17,r6
   110fc:	40d1c83a 	sub	r8,r8,r3
   11100:	4451c83a 	sub	r8,r8,r17
   11104:	3023883a 	mov	r17,r6
   11108:	4080202c 	andhi	r2,r8,128
   1110c:	10002326 	beq	r2,zero,1119c <__adddf3+0x204>
   11110:	04c02034 	movhi	r19,128
   11114:	9cffffc4 	addi	r19,r19,-1
   11118:	44e6703a 	and	r19,r8,r19
   1111c:	98007626 	beq	r19,zero,112f8 <__adddf3+0x360>
   11120:	9809883a 	mov	r4,r19
   11124:	001220c0 	call	1220c <__clzsi2>
   11128:	10fffe04 	addi	r3,r2,-8
   1112c:	010007c4 	movi	r4,31
   11130:	20c07716 	blt	r4,r3,11310 <__adddf3+0x378>
   11134:	00800804 	movi	r2,32
   11138:	10c5c83a 	sub	r2,r2,r3
   1113c:	8884d83a 	srl	r2,r17,r2
   11140:	98d0983a 	sll	r8,r19,r3
   11144:	88e2983a 	sll	r17,r17,r3
   11148:	1204b03a 	or	r2,r2,r8
   1114c:	1c007416 	blt	r3,r16,11320 <__adddf3+0x388>
   11150:	1c21c83a 	sub	r16,r3,r16
   11154:	82000044 	addi	r8,r16,1
   11158:	00c007c4 	movi	r3,31
   1115c:	1a009116 	blt	r3,r8,113a4 <__adddf3+0x40c>
   11160:	00c00804 	movi	r3,32
   11164:	1a07c83a 	sub	r3,r3,r8
   11168:	8a08d83a 	srl	r4,r17,r8
   1116c:	88e2983a 	sll	r17,r17,r3
   11170:	10c6983a 	sll	r3,r2,r3
   11174:	1210d83a 	srl	r8,r2,r8
   11178:	8804c03a 	cmpne	r2,r17,zero
   1117c:	1906b03a 	or	r3,r3,r4
   11180:	18a2b03a 	or	r17,r3,r2
   11184:	0021883a 	mov	r16,zero
   11188:	003fa206 	br	11014 <_gp+0xfffeaf58>
   1118c:	1890b03a 	or	r8,r3,r2
   11190:	40017d26 	beq	r8,zero,11788 <__adddf3+0x7f0>
   11194:	1011883a 	mov	r8,r2
   11198:	1823883a 	mov	r17,r3
   1119c:	888001cc 	andi	r2,r17,7
   111a0:	103f9e1e 	bne	r2,zero,1101c <_gp+0xfffeaf60>
   111a4:	4004977a 	slli	r2,r8,29
   111a8:	8822d0fa 	srli	r17,r17,3
   111ac:	4010d0fa 	srli	r8,r8,3
   111b0:	9007883a 	mov	r3,r18
   111b4:	1444b03a 	or	r2,r2,r17
   111b8:	0101ffc4 	movi	r4,2047
   111bc:	81002426 	beq	r16,r4,11250 <__adddf3+0x2b8>
   111c0:	8120703a 	and	r16,r16,r4
   111c4:	01000434 	movhi	r4,16
   111c8:	213fffc4 	addi	r4,r4,-1
   111cc:	4110703a 	and	r8,r8,r4
   111d0:	003fa806 	br	11074 <_gp+0xfffeafb8>
   111d4:	8089c83a 	sub	r4,r16,r2
   111d8:	01005e0e 	bge	zero,r4,11354 <__adddf3+0x3bc>
   111dc:	10002b26 	beq	r2,zero,1128c <__adddf3+0x2f4>
   111e0:	0081ffc4 	movi	r2,2047
   111e4:	80bf8b26 	beq	r16,r2,11014 <_gp+0xfffeaf58>
   111e8:	4a402034 	orhi	r9,r9,128
   111ec:	00800e04 	movi	r2,56
   111f0:	1100a40e 	bge	r2,r4,11484 <__adddf3+0x4ec>
   111f4:	498cb03a 	or	r6,r9,r6
   111f8:	300ac03a 	cmpne	r5,r6,zero
   111fc:	0013883a 	mov	r9,zero
   11200:	2c4b883a 	add	r5,r5,r17
   11204:	2c63803a 	cmpltu	r17,r5,r17
   11208:	4a11883a 	add	r8,r9,r8
   1120c:	8a11883a 	add	r8,r17,r8
   11210:	2823883a 	mov	r17,r5
   11214:	4080202c 	andhi	r2,r8,128
   11218:	103fe026 	beq	r2,zero,1119c <_gp+0xfffeb0e0>
   1121c:	84000044 	addi	r16,r16,1
   11220:	0081ffc4 	movi	r2,2047
   11224:	8080d226 	beq	r16,r2,11570 <__adddf3+0x5d8>
   11228:	00bfe034 	movhi	r2,65408
   1122c:	10bfffc4 	addi	r2,r2,-1
   11230:	4090703a 	and	r8,r8,r2
   11234:	880ad07a 	srli	r5,r17,1
   11238:	400897fa 	slli	r4,r8,31
   1123c:	88c0004c 	andi	r3,r17,1
   11240:	28e2b03a 	or	r17,r5,r3
   11244:	4010d07a 	srli	r8,r8,1
   11248:	2462b03a 	or	r17,r4,r17
   1124c:	003f7106 	br	11014 <_gp+0xfffeaf58>
   11250:	4088b03a 	or	r4,r8,r2
   11254:	20014526 	beq	r4,zero,1176c <__adddf3+0x7d4>
   11258:	01000434 	movhi	r4,16
   1125c:	42000234 	orhi	r8,r8,8
   11260:	213fffc4 	addi	r4,r4,-1
   11264:	4110703a 	and	r8,r8,r4
   11268:	003f8206 	br	11074 <_gp+0xfffeafb8>
   1126c:	18ffffc4 	addi	r3,r3,-1
   11270:	1800491e 	bne	r3,zero,11398 <__adddf3+0x400>
   11274:	898bc83a 	sub	r5,r17,r6
   11278:	8963803a 	cmpltu	r17,r17,r5
   1127c:	4251c83a 	sub	r8,r8,r9
   11280:	4451c83a 	sub	r8,r8,r17
   11284:	2823883a 	mov	r17,r5
   11288:	003f9f06 	br	11108 <_gp+0xfffeb04c>
   1128c:	4984b03a 	or	r2,r9,r6
   11290:	103f6026 	beq	r2,zero,11014 <_gp+0xfffeaf58>
   11294:	213fffc4 	addi	r4,r4,-1
   11298:	2000931e 	bne	r4,zero,114e8 <__adddf3+0x550>
   1129c:	898d883a 	add	r6,r17,r6
   112a0:	3463803a 	cmpltu	r17,r6,r17
   112a4:	4251883a 	add	r8,r8,r9
   112a8:	8a11883a 	add	r8,r17,r8
   112ac:	3023883a 	mov	r17,r6
   112b0:	003fd806 	br	11214 <_gp+0xfffeb158>
   112b4:	1800541e 	bne	r3,zero,11408 <__adddf3+0x470>
   112b8:	80800044 	addi	r2,r16,1
   112bc:	1081ffcc 	andi	r2,r2,2047
   112c0:	00c00044 	movi	r3,1
   112c4:	1880a00e 	bge	r3,r2,11548 <__adddf3+0x5b0>
   112c8:	8989c83a 	sub	r4,r17,r6
   112cc:	8905803a 	cmpltu	r2,r17,r4
   112d0:	4267c83a 	sub	r19,r8,r9
   112d4:	98a7c83a 	sub	r19,r19,r2
   112d8:	9880202c 	andhi	r2,r19,128
   112dc:	10006326 	beq	r2,zero,1146c <__adddf3+0x4d4>
   112e0:	3463c83a 	sub	r17,r6,r17
   112e4:	4a07c83a 	sub	r3,r9,r8
   112e8:	344d803a 	cmpltu	r6,r6,r17
   112ec:	19a7c83a 	sub	r19,r3,r6
   112f0:	3825883a 	mov	r18,r7
   112f4:	983f8a1e 	bne	r19,zero,11120 <_gp+0xfffeb064>
   112f8:	8809883a 	mov	r4,r17
   112fc:	001220c0 	call	1220c <__clzsi2>
   11300:	10800804 	addi	r2,r2,32
   11304:	10fffe04 	addi	r3,r2,-8
   11308:	010007c4 	movi	r4,31
   1130c:	20ff890e 	bge	r4,r3,11134 <_gp+0xfffeb078>
   11310:	10bff604 	addi	r2,r2,-40
   11314:	8884983a 	sll	r2,r17,r2
   11318:	0023883a 	mov	r17,zero
   1131c:	1c3f8c0e 	bge	r3,r16,11150 <_gp+0xfffeb094>
   11320:	023fe034 	movhi	r8,65408
   11324:	423fffc4 	addi	r8,r8,-1
   11328:	80e1c83a 	sub	r16,r16,r3
   1132c:	1210703a 	and	r8,r2,r8
   11330:	003f3806 	br	11014 <_gp+0xfffeaf58>
   11334:	9007883a 	mov	r3,r18
   11338:	0011883a 	mov	r8,zero
   1133c:	0005883a 	mov	r2,zero
   11340:	003f4c06 	br	11074 <_gp+0xfffeafb8>
   11344:	498cb03a 	or	r6,r9,r6
   11348:	300cc03a 	cmpne	r6,r6,zero
   1134c:	0007883a 	mov	r3,zero
   11350:	003f6806 	br	110f4 <_gp+0xfffeb038>
   11354:	20009c1e 	bne	r4,zero,115c8 <__adddf3+0x630>
   11358:	80800044 	addi	r2,r16,1
   1135c:	1141ffcc 	andi	r5,r2,2047
   11360:	01000044 	movi	r4,1
   11364:	2140670e 	bge	r4,r5,11504 <__adddf3+0x56c>
   11368:	0101ffc4 	movi	r4,2047
   1136c:	11007f26 	beq	r2,r4,1156c <__adddf3+0x5d4>
   11370:	898d883a 	add	r6,r17,r6
   11374:	4247883a 	add	r3,r8,r9
   11378:	3451803a 	cmpltu	r8,r6,r17
   1137c:	40d1883a 	add	r8,r8,r3
   11380:	402297fa 	slli	r17,r8,31
   11384:	300cd07a 	srli	r6,r6,1
   11388:	4010d07a 	srli	r8,r8,1
   1138c:	1021883a 	mov	r16,r2
   11390:	89a2b03a 	or	r17,r17,r6
   11394:	003f1f06 	br	11014 <_gp+0xfffeaf58>
   11398:	0081ffc4 	movi	r2,2047
   1139c:	80bf481e 	bne	r16,r2,110c0 <_gp+0xfffeb004>
   113a0:	003f1c06 	br	11014 <_gp+0xfffeaf58>
   113a4:	843ff844 	addi	r16,r16,-31
   113a8:	01000804 	movi	r4,32
   113ac:	1406d83a 	srl	r3,r2,r16
   113b0:	41005026 	beq	r8,r4,114f4 <__adddf3+0x55c>
   113b4:	01001004 	movi	r4,64
   113b8:	2211c83a 	sub	r8,r4,r8
   113bc:	1204983a 	sll	r2,r2,r8
   113c0:	88a2b03a 	or	r17,r17,r2
   113c4:	8822c03a 	cmpne	r17,r17,zero
   113c8:	1c62b03a 	or	r17,r3,r17
   113cc:	0011883a 	mov	r8,zero
   113d0:	0021883a 	mov	r16,zero
   113d4:	003f7106 	br	1119c <_gp+0xfffeb0e0>
   113d8:	193ff804 	addi	r4,r3,-32
   113dc:	00800804 	movi	r2,32
   113e0:	4908d83a 	srl	r4,r9,r4
   113e4:	18804526 	beq	r3,r2,114fc <__adddf3+0x564>
   113e8:	00801004 	movi	r2,64
   113ec:	10c5c83a 	sub	r2,r2,r3
   113f0:	4886983a 	sll	r3,r9,r2
   113f4:	198cb03a 	or	r6,r3,r6
   113f8:	300cc03a 	cmpne	r6,r6,zero
   113fc:	218cb03a 	or	r6,r4,r6
   11400:	0007883a 	mov	r3,zero
   11404:	003f3b06 	br	110f4 <_gp+0xfffeb038>
   11408:	80002a26 	beq	r16,zero,114b4 <__adddf3+0x51c>
   1140c:	0101ffc4 	movi	r4,2047
   11410:	11006826 	beq	r2,r4,115b4 <__adddf3+0x61c>
   11414:	00c7c83a 	sub	r3,zero,r3
   11418:	42002034 	orhi	r8,r8,128
   1141c:	01000e04 	movi	r4,56
   11420:	20c07c16 	blt	r4,r3,11614 <__adddf3+0x67c>
   11424:	010007c4 	movi	r4,31
   11428:	20c0da16 	blt	r4,r3,11794 <__adddf3+0x7fc>
   1142c:	01000804 	movi	r4,32
   11430:	20c9c83a 	sub	r4,r4,r3
   11434:	4114983a 	sll	r10,r8,r4
   11438:	88cad83a 	srl	r5,r17,r3
   1143c:	8908983a 	sll	r4,r17,r4
   11440:	40c6d83a 	srl	r3,r8,r3
   11444:	5162b03a 	or	r17,r10,r5
   11448:	2008c03a 	cmpne	r4,r4,zero
   1144c:	8922b03a 	or	r17,r17,r4
   11450:	3463c83a 	sub	r17,r6,r17
   11454:	48c7c83a 	sub	r3,r9,r3
   11458:	344d803a 	cmpltu	r6,r6,r17
   1145c:	1991c83a 	sub	r8,r3,r6
   11460:	1021883a 	mov	r16,r2
   11464:	3825883a 	mov	r18,r7
   11468:	003f2706 	br	11108 <_gp+0xfffeb04c>
   1146c:	24d0b03a 	or	r8,r4,r19
   11470:	40001b1e 	bne	r8,zero,114e0 <__adddf3+0x548>
   11474:	0005883a 	mov	r2,zero
   11478:	0007883a 	mov	r3,zero
   1147c:	0021883a 	mov	r16,zero
   11480:	003f4d06 	br	111b8 <_gp+0xfffeb0fc>
   11484:	008007c4 	movi	r2,31
   11488:	11003c16 	blt	r2,r4,1157c <__adddf3+0x5e4>
   1148c:	00800804 	movi	r2,32
   11490:	1105c83a 	sub	r2,r2,r4
   11494:	488e983a 	sll	r7,r9,r2
   11498:	310ad83a 	srl	r5,r6,r4
   1149c:	3084983a 	sll	r2,r6,r2
   114a0:	4912d83a 	srl	r9,r9,r4
   114a4:	394ab03a 	or	r5,r7,r5
   114a8:	1004c03a 	cmpne	r2,r2,zero
   114ac:	288ab03a 	or	r5,r5,r2
   114b0:	003f5306 	br	11200 <_gp+0xfffeb144>
   114b4:	4448b03a 	or	r4,r8,r17
   114b8:	20003e26 	beq	r4,zero,115b4 <__adddf3+0x61c>
   114bc:	00c6303a 	nor	r3,zero,r3
   114c0:	18003a1e 	bne	r3,zero,115ac <__adddf3+0x614>
   114c4:	3463c83a 	sub	r17,r6,r17
   114c8:	4a07c83a 	sub	r3,r9,r8
   114cc:	344d803a 	cmpltu	r6,r6,r17
   114d0:	1991c83a 	sub	r8,r3,r6
   114d4:	1021883a 	mov	r16,r2
   114d8:	3825883a 	mov	r18,r7
   114dc:	003f0a06 	br	11108 <_gp+0xfffeb04c>
   114e0:	2023883a 	mov	r17,r4
   114e4:	003f0d06 	br	1111c <_gp+0xfffeb060>
   114e8:	0081ffc4 	movi	r2,2047
   114ec:	80bf3f1e 	bne	r16,r2,111ec <_gp+0xfffeb130>
   114f0:	003ec806 	br	11014 <_gp+0xfffeaf58>
   114f4:	0005883a 	mov	r2,zero
   114f8:	003fb106 	br	113c0 <_gp+0xfffeb304>
   114fc:	0007883a 	mov	r3,zero
   11500:	003fbc06 	br	113f4 <_gp+0xfffeb338>
   11504:	4444b03a 	or	r2,r8,r17
   11508:	8000871e 	bne	r16,zero,11728 <__adddf3+0x790>
   1150c:	1000ba26 	beq	r2,zero,117f8 <__adddf3+0x860>
   11510:	4984b03a 	or	r2,r9,r6
   11514:	103ebf26 	beq	r2,zero,11014 <_gp+0xfffeaf58>
   11518:	8985883a 	add	r2,r17,r6
   1151c:	4247883a 	add	r3,r8,r9
   11520:	1451803a 	cmpltu	r8,r2,r17
   11524:	40d1883a 	add	r8,r8,r3
   11528:	40c0202c 	andhi	r3,r8,128
   1152c:	1023883a 	mov	r17,r2
   11530:	183f1a26 	beq	r3,zero,1119c <_gp+0xfffeb0e0>
   11534:	00bfe034 	movhi	r2,65408
   11538:	10bfffc4 	addi	r2,r2,-1
   1153c:	2021883a 	mov	r16,r4
   11540:	4090703a 	and	r8,r8,r2
   11544:	003eb306 	br	11014 <_gp+0xfffeaf58>
   11548:	4444b03a 	or	r2,r8,r17
   1154c:	8000291e 	bne	r16,zero,115f4 <__adddf3+0x65c>
   11550:	10004b1e 	bne	r2,zero,11680 <__adddf3+0x6e8>
   11554:	4990b03a 	or	r8,r9,r6
   11558:	40008b26 	beq	r8,zero,11788 <__adddf3+0x7f0>
   1155c:	4811883a 	mov	r8,r9
   11560:	3023883a 	mov	r17,r6
   11564:	3825883a 	mov	r18,r7
   11568:	003eaa06 	br	11014 <_gp+0xfffeaf58>
   1156c:	1021883a 	mov	r16,r2
   11570:	0011883a 	mov	r8,zero
   11574:	0005883a 	mov	r2,zero
   11578:	003f0f06 	br	111b8 <_gp+0xfffeb0fc>
   1157c:	217ff804 	addi	r5,r4,-32
   11580:	00800804 	movi	r2,32
   11584:	494ad83a 	srl	r5,r9,r5
   11588:	20807d26 	beq	r4,r2,11780 <__adddf3+0x7e8>
   1158c:	00801004 	movi	r2,64
   11590:	1109c83a 	sub	r4,r2,r4
   11594:	4912983a 	sll	r9,r9,r4
   11598:	498cb03a 	or	r6,r9,r6
   1159c:	300cc03a 	cmpne	r6,r6,zero
   115a0:	298ab03a 	or	r5,r5,r6
   115a4:	0013883a 	mov	r9,zero
   115a8:	003f1506 	br	11200 <_gp+0xfffeb144>
   115ac:	0101ffc4 	movi	r4,2047
   115b0:	113f9a1e 	bne	r2,r4,1141c <_gp+0xfffeb360>
   115b4:	4811883a 	mov	r8,r9
   115b8:	3023883a 	mov	r17,r6
   115bc:	1021883a 	mov	r16,r2
   115c0:	3825883a 	mov	r18,r7
   115c4:	003e9306 	br	11014 <_gp+0xfffeaf58>
   115c8:	8000161e 	bne	r16,zero,11624 <__adddf3+0x68c>
   115cc:	444ab03a 	or	r5,r8,r17
   115d0:	28005126 	beq	r5,zero,11718 <__adddf3+0x780>
   115d4:	0108303a 	nor	r4,zero,r4
   115d8:	20004d1e 	bne	r4,zero,11710 <__adddf3+0x778>
   115dc:	89a3883a 	add	r17,r17,r6
   115e0:	4253883a 	add	r9,r8,r9
   115e4:	898d803a 	cmpltu	r6,r17,r6
   115e8:	3251883a 	add	r8,r6,r9
   115ec:	1021883a 	mov	r16,r2
   115f0:	003f0806 	br	11214 <_gp+0xfffeb158>
   115f4:	1000301e 	bne	r2,zero,116b8 <__adddf3+0x720>
   115f8:	4984b03a 	or	r2,r9,r6
   115fc:	10007126 	beq	r2,zero,117c4 <__adddf3+0x82c>
   11600:	4811883a 	mov	r8,r9
   11604:	3023883a 	mov	r17,r6
   11608:	3825883a 	mov	r18,r7
   1160c:	0401ffc4 	movi	r16,2047
   11610:	003e8006 	br	11014 <_gp+0xfffeaf58>
   11614:	4462b03a 	or	r17,r8,r17
   11618:	8822c03a 	cmpne	r17,r17,zero
   1161c:	0007883a 	mov	r3,zero
   11620:	003f8b06 	br	11450 <_gp+0xfffeb394>
   11624:	0141ffc4 	movi	r5,2047
   11628:	11403b26 	beq	r2,r5,11718 <__adddf3+0x780>
   1162c:	0109c83a 	sub	r4,zero,r4
   11630:	42002034 	orhi	r8,r8,128
   11634:	01400e04 	movi	r5,56
   11638:	29006716 	blt	r5,r4,117d8 <__adddf3+0x840>
   1163c:	014007c4 	movi	r5,31
   11640:	29007016 	blt	r5,r4,11804 <__adddf3+0x86c>
   11644:	01400804 	movi	r5,32
   11648:	290bc83a 	sub	r5,r5,r4
   1164c:	4154983a 	sll	r10,r8,r5
   11650:	890ed83a 	srl	r7,r17,r4
   11654:	894a983a 	sll	r5,r17,r5
   11658:	4108d83a 	srl	r4,r8,r4
   1165c:	51e2b03a 	or	r17,r10,r7
   11660:	280ac03a 	cmpne	r5,r5,zero
   11664:	8962b03a 	or	r17,r17,r5
   11668:	89a3883a 	add	r17,r17,r6
   1166c:	2253883a 	add	r9,r4,r9
   11670:	898d803a 	cmpltu	r6,r17,r6
   11674:	3251883a 	add	r8,r6,r9
   11678:	1021883a 	mov	r16,r2
   1167c:	003ee506 	br	11214 <_gp+0xfffeb158>
   11680:	4984b03a 	or	r2,r9,r6
   11684:	103e6326 	beq	r2,zero,11014 <_gp+0xfffeaf58>
   11688:	8987c83a 	sub	r3,r17,r6
   1168c:	88c9803a 	cmpltu	r4,r17,r3
   11690:	4245c83a 	sub	r2,r8,r9
   11694:	1105c83a 	sub	r2,r2,r4
   11698:	1100202c 	andhi	r4,r2,128
   1169c:	203ebb26 	beq	r4,zero,1118c <_gp+0xfffeb0d0>
   116a0:	3463c83a 	sub	r17,r6,r17
   116a4:	4a07c83a 	sub	r3,r9,r8
   116a8:	344d803a 	cmpltu	r6,r6,r17
   116ac:	1991c83a 	sub	r8,r3,r6
   116b0:	3825883a 	mov	r18,r7
   116b4:	003e5706 	br	11014 <_gp+0xfffeaf58>
   116b8:	4984b03a 	or	r2,r9,r6
   116bc:	10002e26 	beq	r2,zero,11778 <__adddf3+0x7e0>
   116c0:	4004d0fa 	srli	r2,r8,3
   116c4:	8822d0fa 	srli	r17,r17,3
   116c8:	4010977a 	slli	r8,r8,29
   116cc:	10c0022c 	andhi	r3,r2,8
   116d0:	4462b03a 	or	r17,r8,r17
   116d4:	18000826 	beq	r3,zero,116f8 <__adddf3+0x760>
   116d8:	4808d0fa 	srli	r4,r9,3
   116dc:	20c0022c 	andhi	r3,r4,8
   116e0:	1800051e 	bne	r3,zero,116f8 <__adddf3+0x760>
   116e4:	300cd0fa 	srli	r6,r6,3
   116e8:	4806977a 	slli	r3,r9,29
   116ec:	2005883a 	mov	r2,r4
   116f0:	3825883a 	mov	r18,r7
   116f4:	19a2b03a 	or	r17,r3,r6
   116f8:	8810d77a 	srli	r8,r17,29
   116fc:	100490fa 	slli	r2,r2,3
   11700:	882290fa 	slli	r17,r17,3
   11704:	0401ffc4 	movi	r16,2047
   11708:	4090b03a 	or	r8,r8,r2
   1170c:	003e4106 	br	11014 <_gp+0xfffeaf58>
   11710:	0141ffc4 	movi	r5,2047
   11714:	117fc71e 	bne	r2,r5,11634 <_gp+0xfffeb578>
   11718:	4811883a 	mov	r8,r9
   1171c:	3023883a 	mov	r17,r6
   11720:	1021883a 	mov	r16,r2
   11724:	003e3b06 	br	11014 <_gp+0xfffeaf58>
   11728:	10002f26 	beq	r2,zero,117e8 <__adddf3+0x850>
   1172c:	4984b03a 	or	r2,r9,r6
   11730:	10001126 	beq	r2,zero,11778 <__adddf3+0x7e0>
   11734:	4004d0fa 	srli	r2,r8,3
   11738:	8822d0fa 	srli	r17,r17,3
   1173c:	4010977a 	slli	r8,r8,29
   11740:	10c0022c 	andhi	r3,r2,8
   11744:	4462b03a 	or	r17,r8,r17
   11748:	183feb26 	beq	r3,zero,116f8 <_gp+0xfffeb63c>
   1174c:	4808d0fa 	srli	r4,r9,3
   11750:	20c0022c 	andhi	r3,r4,8
   11754:	183fe81e 	bne	r3,zero,116f8 <_gp+0xfffeb63c>
   11758:	300cd0fa 	srli	r6,r6,3
   1175c:	4806977a 	slli	r3,r9,29
   11760:	2005883a 	mov	r2,r4
   11764:	19a2b03a 	or	r17,r3,r6
   11768:	003fe306 	br	116f8 <_gp+0xfffeb63c>
   1176c:	0011883a 	mov	r8,zero
   11770:	0005883a 	mov	r2,zero
   11774:	003e3f06 	br	11074 <_gp+0xfffeafb8>
   11778:	0401ffc4 	movi	r16,2047
   1177c:	003e2506 	br	11014 <_gp+0xfffeaf58>
   11780:	0013883a 	mov	r9,zero
   11784:	003f8406 	br	11598 <_gp+0xfffeb4dc>
   11788:	0005883a 	mov	r2,zero
   1178c:	0007883a 	mov	r3,zero
   11790:	003e8906 	br	111b8 <_gp+0xfffeb0fc>
   11794:	197ff804 	addi	r5,r3,-32
   11798:	01000804 	movi	r4,32
   1179c:	414ad83a 	srl	r5,r8,r5
   117a0:	19002426 	beq	r3,r4,11834 <__adddf3+0x89c>
   117a4:	01001004 	movi	r4,64
   117a8:	20c7c83a 	sub	r3,r4,r3
   117ac:	40c6983a 	sll	r3,r8,r3
   117b0:	1c46b03a 	or	r3,r3,r17
   117b4:	1806c03a 	cmpne	r3,r3,zero
   117b8:	28e2b03a 	or	r17,r5,r3
   117bc:	0007883a 	mov	r3,zero
   117c0:	003f2306 	br	11450 <_gp+0xfffeb394>
   117c4:	0007883a 	mov	r3,zero
   117c8:	5811883a 	mov	r8,r11
   117cc:	00bfffc4 	movi	r2,-1
   117d0:	0401ffc4 	movi	r16,2047
   117d4:	003e7806 	br	111b8 <_gp+0xfffeb0fc>
   117d8:	4462b03a 	or	r17,r8,r17
   117dc:	8822c03a 	cmpne	r17,r17,zero
   117e0:	0009883a 	mov	r4,zero
   117e4:	003fa006 	br	11668 <_gp+0xfffeb5ac>
   117e8:	4811883a 	mov	r8,r9
   117ec:	3023883a 	mov	r17,r6
   117f0:	0401ffc4 	movi	r16,2047
   117f4:	003e0706 	br	11014 <_gp+0xfffeaf58>
   117f8:	4811883a 	mov	r8,r9
   117fc:	3023883a 	mov	r17,r6
   11800:	003e0406 	br	11014 <_gp+0xfffeaf58>
   11804:	21fff804 	addi	r7,r4,-32
   11808:	01400804 	movi	r5,32
   1180c:	41ced83a 	srl	r7,r8,r7
   11810:	21400a26 	beq	r4,r5,1183c <__adddf3+0x8a4>
   11814:	01401004 	movi	r5,64
   11818:	2909c83a 	sub	r4,r5,r4
   1181c:	4108983a 	sll	r4,r8,r4
   11820:	2448b03a 	or	r4,r4,r17
   11824:	2008c03a 	cmpne	r4,r4,zero
   11828:	3922b03a 	or	r17,r7,r4
   1182c:	0009883a 	mov	r4,zero
   11830:	003f8d06 	br	11668 <_gp+0xfffeb5ac>
   11834:	0007883a 	mov	r3,zero
   11838:	003fdd06 	br	117b0 <_gp+0xfffeb6f4>
   1183c:	0009883a 	mov	r4,zero
   11840:	003ff706 	br	11820 <_gp+0xfffeb764>

00011844 <__muldf3>:
   11844:	deffee04 	addi	sp,sp,-72
   11848:	dd000c15 	stw	r20,48(sp)
   1184c:	2828d53a 	srli	r20,r5,20
   11850:	ddc00f15 	stw	r23,60(sp)
   11854:	282ed7fa 	srli	r23,r5,31
   11858:	dc000815 	stw	r16,32(sp)
   1185c:	04000434 	movhi	r16,16
   11860:	dcc00b15 	stw	r19,44(sp)
   11864:	843fffc4 	addi	r16,r16,-1
   11868:	dfc01115 	stw	ra,68(sp)
   1186c:	df001015 	stw	fp,64(sp)
   11870:	dd800e15 	stw	r22,56(sp)
   11874:	dd400d15 	stw	r21,52(sp)
   11878:	dc800a15 	stw	r18,40(sp)
   1187c:	dc400915 	stw	r17,36(sp)
   11880:	a501ffcc 	andi	r20,r20,2047
   11884:	2c20703a 	and	r16,r5,r16
   11888:	b827883a 	mov	r19,r23
   1188c:	ba403fcc 	andi	r9,r23,255
   11890:	a0006026 	beq	r20,zero,11a14 <__muldf3+0x1d0>
   11894:	0081ffc4 	movi	r2,2047
   11898:	202d883a 	mov	r22,r4
   1189c:	a0803626 	beq	r20,r2,11978 <__muldf3+0x134>
   118a0:	84000434 	orhi	r16,r16,16
   118a4:	200ad77a 	srli	r5,r4,29
   118a8:	800490fa 	slli	r2,r16,3
   118ac:	202c90fa 	slli	r22,r4,3
   118b0:	a53f0044 	addi	r20,r20,-1023
   118b4:	28a0b03a 	or	r16,r5,r2
   118b8:	002b883a 	mov	r21,zero
   118bc:	000b883a 	mov	r5,zero
   118c0:	3804d53a 	srli	r2,r7,20
   118c4:	3838d7fa 	srli	fp,r7,31
   118c8:	04400434 	movhi	r17,16
   118cc:	8c7fffc4 	addi	r17,r17,-1
   118d0:	1081ffcc 	andi	r2,r2,2047
   118d4:	3025883a 	mov	r18,r6
   118d8:	3c62703a 	and	r17,r7,r17
   118dc:	e2803fcc 	andi	r10,fp,255
   118e0:	10006d26 	beq	r2,zero,11a98 <__muldf3+0x254>
   118e4:	00c1ffc4 	movi	r3,2047
   118e8:	10c06526 	beq	r2,r3,11a80 <__muldf3+0x23c>
   118ec:	8c400434 	orhi	r17,r17,16
   118f0:	300ed77a 	srli	r7,r6,29
   118f4:	880690fa 	slli	r3,r17,3
   118f8:	302490fa 	slli	r18,r6,3
   118fc:	10bf0044 	addi	r2,r2,-1023
   11900:	38e2b03a 	or	r17,r7,r3
   11904:	000f883a 	mov	r7,zero
   11908:	a087883a 	add	r3,r20,r2
   1190c:	010003c4 	movi	r4,15
   11910:	3d44b03a 	or	r2,r7,r21
   11914:	e5ccf03a 	xor	r6,fp,r23
   11918:	1a000044 	addi	r8,r3,1
   1191c:	20809b36 	bltu	r4,r2,11b8c <__muldf3+0x348>
   11920:	100490ba 	slli	r2,r2,2
   11924:	01000074 	movhi	r4,1
   11928:	21064e04 	addi	r4,r4,6456
   1192c:	1105883a 	add	r2,r2,r4
   11930:	10800017 	ldw	r2,0(r2)
   11934:	1000683a 	jmp	r2
   11938:	00011b8c 	andi	zero,zero,1134
   1193c:	00011998 	cmpnei	zero,zero,1126
   11940:	00011998 	cmpnei	zero,zero,1126
   11944:	00011994 	movui	zero,1126
   11948:	00011b68 	cmpgeui	zero,zero,1133
   1194c:	00011b68 	cmpgeui	zero,zero,1133
   11950:	00011b50 	cmplti	zero,zero,1133
   11954:	00011994 	movui	zero,1126
   11958:	00011b68 	cmpgeui	zero,zero,1133
   1195c:	00011b50 	cmplti	zero,zero,1133
   11960:	00011b68 	cmpgeui	zero,zero,1133
   11964:	00011994 	movui	zero,1126
   11968:	00011b78 	rdprs	zero,zero,1133
   1196c:	00011b78 	rdprs	zero,zero,1133
   11970:	00011b78 	rdprs	zero,zero,1133
   11974:	00011ed8 	cmpnei	zero,zero,1147
   11978:	2404b03a 	or	r2,r4,r16
   1197c:	1000711e 	bne	r2,zero,11b44 <__muldf3+0x300>
   11980:	05400204 	movi	r21,8
   11984:	0021883a 	mov	r16,zero
   11988:	002d883a 	mov	r22,zero
   1198c:	01400084 	movi	r5,2
   11990:	003fcb06 	br	118c0 <_gp+0xfffeb804>
   11994:	500d883a 	mov	r6,r10
   11998:	00800084 	movi	r2,2
   1199c:	38805926 	beq	r7,r2,11b04 <__muldf3+0x2c0>
   119a0:	008000c4 	movi	r2,3
   119a4:	3881bb26 	beq	r7,r2,12094 <__muldf3+0x850>
   119a8:	00800044 	movi	r2,1
   119ac:	3881961e 	bne	r7,r2,12008 <__muldf3+0x7c4>
   119b0:	3027883a 	mov	r19,r6
   119b4:	0005883a 	mov	r2,zero
   119b8:	0021883a 	mov	r16,zero
   119bc:	002d883a 	mov	r22,zero
   119c0:	1004953a 	slli	r2,r2,20
   119c4:	98c03fcc 	andi	r3,r19,255
   119c8:	04400434 	movhi	r17,16
   119cc:	8c7fffc4 	addi	r17,r17,-1
   119d0:	180697fa 	slli	r3,r3,31
   119d4:	8460703a 	and	r16,r16,r17
   119d8:	80a0b03a 	or	r16,r16,r2
   119dc:	80c6b03a 	or	r3,r16,r3
   119e0:	b005883a 	mov	r2,r22
   119e4:	dfc01117 	ldw	ra,68(sp)
   119e8:	df001017 	ldw	fp,64(sp)
   119ec:	ddc00f17 	ldw	r23,60(sp)
   119f0:	dd800e17 	ldw	r22,56(sp)
   119f4:	dd400d17 	ldw	r21,52(sp)
   119f8:	dd000c17 	ldw	r20,48(sp)
   119fc:	dcc00b17 	ldw	r19,44(sp)
   11a00:	dc800a17 	ldw	r18,40(sp)
   11a04:	dc400917 	ldw	r17,36(sp)
   11a08:	dc000817 	ldw	r16,32(sp)
   11a0c:	dec01204 	addi	sp,sp,72
   11a10:	f800283a 	ret
   11a14:	2404b03a 	or	r2,r4,r16
   11a18:	202b883a 	mov	r21,r4
   11a1c:	10004426 	beq	r2,zero,11b30 <__muldf3+0x2ec>
   11a20:	80015126 	beq	r16,zero,11f68 <__muldf3+0x724>
   11a24:	8009883a 	mov	r4,r16
   11a28:	d9800715 	stw	r6,28(sp)
   11a2c:	d9c00215 	stw	r7,8(sp)
   11a30:	da400415 	stw	r9,16(sp)
   11a34:	001220c0 	call	1220c <__clzsi2>
   11a38:	d9800717 	ldw	r6,28(sp)
   11a3c:	d9c00217 	ldw	r7,8(sp)
   11a40:	da400417 	ldw	r9,16(sp)
   11a44:	113ffd44 	addi	r4,r2,-11
   11a48:	00c00704 	movi	r3,28
   11a4c:	19014216 	blt	r3,r4,11f58 <__muldf3+0x714>
   11a50:	00c00744 	movi	r3,29
   11a54:	15bffe04 	addi	r22,r2,-8
   11a58:	1907c83a 	sub	r3,r3,r4
   11a5c:	85a0983a 	sll	r16,r16,r22
   11a60:	a8c6d83a 	srl	r3,r21,r3
   11a64:	adac983a 	sll	r22,r21,r22
   11a68:	1c20b03a 	or	r16,r3,r16
   11a6c:	1080fcc4 	addi	r2,r2,1011
   11a70:	00a9c83a 	sub	r20,zero,r2
   11a74:	002b883a 	mov	r21,zero
   11a78:	000b883a 	mov	r5,zero
   11a7c:	003f9006 	br	118c0 <_gp+0xfffeb804>
   11a80:	3446b03a 	or	r3,r6,r17
   11a84:	1800281e 	bne	r3,zero,11b28 <__muldf3+0x2e4>
   11a88:	0023883a 	mov	r17,zero
   11a8c:	0025883a 	mov	r18,zero
   11a90:	01c00084 	movi	r7,2
   11a94:	003f9c06 	br	11908 <_gp+0xfffeb84c>
   11a98:	3446b03a 	or	r3,r6,r17
   11a9c:	18001e26 	beq	r3,zero,11b18 <__muldf3+0x2d4>
   11aa0:	88012126 	beq	r17,zero,11f28 <__muldf3+0x6e4>
   11aa4:	8809883a 	mov	r4,r17
   11aa8:	d9400215 	stw	r5,8(sp)
   11aac:	d9800715 	stw	r6,28(sp)
   11ab0:	da400415 	stw	r9,16(sp)
   11ab4:	da800315 	stw	r10,12(sp)
   11ab8:	001220c0 	call	1220c <__clzsi2>
   11abc:	d9400217 	ldw	r5,8(sp)
   11ac0:	d9800717 	ldw	r6,28(sp)
   11ac4:	da400417 	ldw	r9,16(sp)
   11ac8:	da800317 	ldw	r10,12(sp)
   11acc:	113ffd44 	addi	r4,r2,-11
   11ad0:	00c00704 	movi	r3,28
   11ad4:	19011016 	blt	r3,r4,11f18 <__muldf3+0x6d4>
   11ad8:	00c00744 	movi	r3,29
   11adc:	14bffe04 	addi	r18,r2,-8
   11ae0:	1907c83a 	sub	r3,r3,r4
   11ae4:	8ca2983a 	sll	r17,r17,r18
   11ae8:	30c6d83a 	srl	r3,r6,r3
   11aec:	34a4983a 	sll	r18,r6,r18
   11af0:	1c62b03a 	or	r17,r3,r17
   11af4:	1080fcc4 	addi	r2,r2,1011
   11af8:	0085c83a 	sub	r2,zero,r2
   11afc:	000f883a 	mov	r7,zero
   11b00:	003f8106 	br	11908 <_gp+0xfffeb84c>
   11b04:	3027883a 	mov	r19,r6
   11b08:	0081ffc4 	movi	r2,2047
   11b0c:	0021883a 	mov	r16,zero
   11b10:	002d883a 	mov	r22,zero
   11b14:	003faa06 	br	119c0 <_gp+0xfffeb904>
   11b18:	0023883a 	mov	r17,zero
   11b1c:	0025883a 	mov	r18,zero
   11b20:	01c00044 	movi	r7,1
   11b24:	003f7806 	br	11908 <_gp+0xfffeb84c>
   11b28:	01c000c4 	movi	r7,3
   11b2c:	003f7606 	br	11908 <_gp+0xfffeb84c>
   11b30:	05400104 	movi	r21,4
   11b34:	0021883a 	mov	r16,zero
   11b38:	002d883a 	mov	r22,zero
   11b3c:	01400044 	movi	r5,1
   11b40:	003f5f06 	br	118c0 <_gp+0xfffeb804>
   11b44:	05400304 	movi	r21,12
   11b48:	014000c4 	movi	r5,3
   11b4c:	003f5c06 	br	118c0 <_gp+0xfffeb804>
   11b50:	04000434 	movhi	r16,16
   11b54:	0027883a 	mov	r19,zero
   11b58:	843fffc4 	addi	r16,r16,-1
   11b5c:	05bfffc4 	movi	r22,-1
   11b60:	0081ffc4 	movi	r2,2047
   11b64:	003f9606 	br	119c0 <_gp+0xfffeb904>
   11b68:	8023883a 	mov	r17,r16
   11b6c:	b025883a 	mov	r18,r22
   11b70:	280f883a 	mov	r7,r5
   11b74:	003f8806 	br	11998 <_gp+0xfffeb8dc>
   11b78:	8023883a 	mov	r17,r16
   11b7c:	b025883a 	mov	r18,r22
   11b80:	480d883a 	mov	r6,r9
   11b84:	280f883a 	mov	r7,r5
   11b88:	003f8306 	br	11998 <_gp+0xfffeb8dc>
   11b8c:	b026d43a 	srli	r19,r22,16
   11b90:	902ed43a 	srli	r23,r18,16
   11b94:	b5bfffcc 	andi	r22,r22,65535
   11b98:	94bfffcc 	andi	r18,r18,65535
   11b9c:	b00b883a 	mov	r5,r22
   11ba0:	9009883a 	mov	r4,r18
   11ba4:	d8c00515 	stw	r3,20(sp)
   11ba8:	d9800715 	stw	r6,28(sp)
   11bac:	da000615 	stw	r8,24(sp)
   11bb0:	00122700 	call	12270 <__mulsi3>
   11bb4:	980b883a 	mov	r5,r19
   11bb8:	9009883a 	mov	r4,r18
   11bbc:	1029883a 	mov	r20,r2
   11bc0:	00122700 	call	12270 <__mulsi3>
   11bc4:	b80b883a 	mov	r5,r23
   11bc8:	9809883a 	mov	r4,r19
   11bcc:	102b883a 	mov	r21,r2
   11bd0:	00122700 	call	12270 <__mulsi3>
   11bd4:	b809883a 	mov	r4,r23
   11bd8:	b00b883a 	mov	r5,r22
   11bdc:	1039883a 	mov	fp,r2
   11be0:	00122700 	call	12270 <__mulsi3>
   11be4:	a008d43a 	srli	r4,r20,16
   11be8:	1545883a 	add	r2,r2,r21
   11bec:	d8c00517 	ldw	r3,20(sp)
   11bf0:	2085883a 	add	r2,r4,r2
   11bf4:	d9800717 	ldw	r6,28(sp)
   11bf8:	da000617 	ldw	r8,24(sp)
   11bfc:	1540022e 	bgeu	r2,r21,11c08 <__muldf3+0x3c4>
   11c00:	01000074 	movhi	r4,1
   11c04:	e139883a 	add	fp,fp,r4
   11c08:	100e943a 	slli	r7,r2,16
   11c0c:	1004d43a 	srli	r2,r2,16
   11c10:	882ad43a 	srli	r21,r17,16
   11c14:	a53fffcc 	andi	r20,r20,65535
   11c18:	8c7fffcc 	andi	r17,r17,65535
   11c1c:	3d29883a 	add	r20,r7,r20
   11c20:	b00b883a 	mov	r5,r22
   11c24:	8809883a 	mov	r4,r17
   11c28:	d8c00515 	stw	r3,20(sp)
   11c2c:	d9800715 	stw	r6,28(sp)
   11c30:	da000615 	stw	r8,24(sp)
   11c34:	dd000115 	stw	r20,4(sp)
   11c38:	d8800015 	stw	r2,0(sp)
   11c3c:	00122700 	call	12270 <__mulsi3>
   11c40:	980b883a 	mov	r5,r19
   11c44:	8809883a 	mov	r4,r17
   11c48:	d8800215 	stw	r2,8(sp)
   11c4c:	00122700 	call	12270 <__mulsi3>
   11c50:	9809883a 	mov	r4,r19
   11c54:	a80b883a 	mov	r5,r21
   11c58:	1029883a 	mov	r20,r2
   11c5c:	00122700 	call	12270 <__mulsi3>
   11c60:	b00b883a 	mov	r5,r22
   11c64:	a809883a 	mov	r4,r21
   11c68:	d8800415 	stw	r2,16(sp)
   11c6c:	00122700 	call	12270 <__mulsi3>
   11c70:	d9c00217 	ldw	r7,8(sp)
   11c74:	1505883a 	add	r2,r2,r20
   11c78:	d8c00517 	ldw	r3,20(sp)
   11c7c:	3826d43a 	srli	r19,r7,16
   11c80:	d9800717 	ldw	r6,28(sp)
   11c84:	da000617 	ldw	r8,24(sp)
   11c88:	9885883a 	add	r2,r19,r2
   11c8c:	da400417 	ldw	r9,16(sp)
   11c90:	1500022e 	bgeu	r2,r20,11c9c <__muldf3+0x458>
   11c94:	01000074 	movhi	r4,1
   11c98:	4913883a 	add	r9,r9,r4
   11c9c:	1028d43a 	srli	r20,r2,16
   11ca0:	1004943a 	slli	r2,r2,16
   11ca4:	802cd43a 	srli	r22,r16,16
   11ca8:	843fffcc 	andi	r16,r16,65535
   11cac:	3cffffcc 	andi	r19,r7,65535
   11cb0:	9009883a 	mov	r4,r18
   11cb4:	800b883a 	mov	r5,r16
   11cb8:	a269883a 	add	r20,r20,r9
   11cbc:	d8c00515 	stw	r3,20(sp)
   11cc0:	d9800715 	stw	r6,28(sp)
   11cc4:	da000615 	stw	r8,24(sp)
   11cc8:	14e7883a 	add	r19,r2,r19
   11ccc:	00122700 	call	12270 <__mulsi3>
   11cd0:	9009883a 	mov	r4,r18
   11cd4:	b00b883a 	mov	r5,r22
   11cd8:	d8800315 	stw	r2,12(sp)
   11cdc:	00122700 	call	12270 <__mulsi3>
   11ce0:	b809883a 	mov	r4,r23
   11ce4:	b00b883a 	mov	r5,r22
   11ce8:	d8800215 	stw	r2,8(sp)
   11cec:	00122700 	call	12270 <__mulsi3>
   11cf0:	b80b883a 	mov	r5,r23
   11cf4:	8009883a 	mov	r4,r16
   11cf8:	d8800415 	stw	r2,16(sp)
   11cfc:	00122700 	call	12270 <__mulsi3>
   11d00:	da800317 	ldw	r10,12(sp)
   11d04:	d9c00217 	ldw	r7,8(sp)
   11d08:	d9000017 	ldw	r4,0(sp)
   11d0c:	502ed43a 	srli	r23,r10,16
   11d10:	11c5883a 	add	r2,r2,r7
   11d14:	24e5883a 	add	r18,r4,r19
   11d18:	b885883a 	add	r2,r23,r2
   11d1c:	d8c00517 	ldw	r3,20(sp)
   11d20:	d9800717 	ldw	r6,28(sp)
   11d24:	da000617 	ldw	r8,24(sp)
   11d28:	da400417 	ldw	r9,16(sp)
   11d2c:	11c0022e 	bgeu	r2,r7,11d38 <__muldf3+0x4f4>
   11d30:	01000074 	movhi	r4,1
   11d34:	4913883a 	add	r9,r9,r4
   11d38:	100ed43a 	srli	r7,r2,16
   11d3c:	1004943a 	slli	r2,r2,16
   11d40:	55ffffcc 	andi	r23,r10,65535
   11d44:	3a53883a 	add	r9,r7,r9
   11d48:	8809883a 	mov	r4,r17
   11d4c:	800b883a 	mov	r5,r16
   11d50:	d8c00515 	stw	r3,20(sp)
   11d54:	d9800715 	stw	r6,28(sp)
   11d58:	da000615 	stw	r8,24(sp)
   11d5c:	da400415 	stw	r9,16(sp)
   11d60:	15ef883a 	add	r23,r2,r23
   11d64:	00122700 	call	12270 <__mulsi3>
   11d68:	8809883a 	mov	r4,r17
   11d6c:	b00b883a 	mov	r5,r22
   11d70:	d8800215 	stw	r2,8(sp)
   11d74:	00122700 	call	12270 <__mulsi3>
   11d78:	b00b883a 	mov	r5,r22
   11d7c:	a809883a 	mov	r4,r21
   11d80:	d8800315 	stw	r2,12(sp)
   11d84:	00122700 	call	12270 <__mulsi3>
   11d88:	8009883a 	mov	r4,r16
   11d8c:	a80b883a 	mov	r5,r21
   11d90:	1023883a 	mov	r17,r2
   11d94:	00122700 	call	12270 <__mulsi3>
   11d98:	d9c00217 	ldw	r7,8(sp)
   11d9c:	da800317 	ldw	r10,12(sp)
   11da0:	d8c00517 	ldw	r3,20(sp)
   11da4:	3808d43a 	srli	r4,r7,16
   11da8:	1285883a 	add	r2,r2,r10
   11dac:	d9800717 	ldw	r6,28(sp)
   11db0:	2085883a 	add	r2,r4,r2
   11db4:	da000617 	ldw	r8,24(sp)
   11db8:	da400417 	ldw	r9,16(sp)
   11dbc:	1280022e 	bgeu	r2,r10,11dc8 <__muldf3+0x584>
   11dc0:	01000074 	movhi	r4,1
   11dc4:	8923883a 	add	r17,r17,r4
   11dc8:	1008943a 	slli	r4,r2,16
   11dcc:	39ffffcc 	andi	r7,r7,65535
   11dd0:	e4b9883a 	add	fp,fp,r18
   11dd4:	21cf883a 	add	r7,r4,r7
   11dd8:	e4e7803a 	cmpltu	r19,fp,r19
   11ddc:	3d0f883a 	add	r7,r7,r20
   11de0:	bf39883a 	add	fp,r23,fp
   11de4:	99c9883a 	add	r4,r19,r7
   11de8:	e5ef803a 	cmpltu	r23,fp,r23
   11dec:	490b883a 	add	r5,r9,r4
   11df0:	1004d43a 	srli	r2,r2,16
   11df4:	b965883a 	add	r18,r23,r5
   11df8:	24c9803a 	cmpltu	r4,r4,r19
   11dfc:	3d29803a 	cmpltu	r20,r7,r20
   11e00:	a128b03a 	or	r20,r20,r4
   11e04:	95ef803a 	cmpltu	r23,r18,r23
   11e08:	2a53803a 	cmpltu	r9,r5,r9
   11e0c:	a0a9883a 	add	r20,r20,r2
   11e10:	4deeb03a 	or	r23,r9,r23
   11e14:	a5ef883a 	add	r23,r20,r23
   11e18:	bc63883a 	add	r17,r23,r17
   11e1c:	e004927a 	slli	r2,fp,9
   11e20:	d9000117 	ldw	r4,4(sp)
   11e24:	882e927a 	slli	r23,r17,9
   11e28:	9022d5fa 	srli	r17,r18,23
   11e2c:	e038d5fa 	srli	fp,fp,23
   11e30:	1104b03a 	or	r2,r2,r4
   11e34:	9024927a 	slli	r18,r18,9
   11e38:	1004c03a 	cmpne	r2,r2,zero
   11e3c:	bc62b03a 	or	r17,r23,r17
   11e40:	1738b03a 	or	fp,r2,fp
   11e44:	8880402c 	andhi	r2,r17,256
   11e48:	e4a4b03a 	or	r18,fp,r18
   11e4c:	10000726 	beq	r2,zero,11e6c <__muldf3+0x628>
   11e50:	9006d07a 	srli	r3,r18,1
   11e54:	880497fa 	slli	r2,r17,31
   11e58:	9480004c 	andi	r18,r18,1
   11e5c:	8822d07a 	srli	r17,r17,1
   11e60:	1ca4b03a 	or	r18,r3,r18
   11e64:	14a4b03a 	or	r18,r2,r18
   11e68:	4007883a 	mov	r3,r8
   11e6c:	1880ffc4 	addi	r2,r3,1023
   11e70:	0080460e 	bge	zero,r2,11f8c <__muldf3+0x748>
   11e74:	910001cc 	andi	r4,r18,7
   11e78:	20000726 	beq	r4,zero,11e98 <__muldf3+0x654>
   11e7c:	910003cc 	andi	r4,r18,15
   11e80:	01400104 	movi	r5,4
   11e84:	21400426 	beq	r4,r5,11e98 <__muldf3+0x654>
   11e88:	9149883a 	add	r4,r18,r5
   11e8c:	24a5803a 	cmpltu	r18,r4,r18
   11e90:	8ca3883a 	add	r17,r17,r18
   11e94:	2025883a 	mov	r18,r4
   11e98:	8900402c 	andhi	r4,r17,256
   11e9c:	20000426 	beq	r4,zero,11eb0 <__muldf3+0x66c>
   11ea0:	18810004 	addi	r2,r3,1024
   11ea4:	00ffc034 	movhi	r3,65280
   11ea8:	18ffffc4 	addi	r3,r3,-1
   11eac:	88e2703a 	and	r17,r17,r3
   11eb0:	00c1ff84 	movi	r3,2046
   11eb4:	18bf1316 	blt	r3,r2,11b04 <_gp+0xfffeba48>
   11eb8:	882c977a 	slli	r22,r17,29
   11ebc:	9024d0fa 	srli	r18,r18,3
   11ec0:	8822927a 	slli	r17,r17,9
   11ec4:	1081ffcc 	andi	r2,r2,2047
   11ec8:	b4acb03a 	or	r22,r22,r18
   11ecc:	8820d33a 	srli	r16,r17,12
   11ed0:	3027883a 	mov	r19,r6
   11ed4:	003eba06 	br	119c0 <_gp+0xfffeb904>
   11ed8:	8080022c 	andhi	r2,r16,8
   11edc:	10000926 	beq	r2,zero,11f04 <__muldf3+0x6c0>
   11ee0:	8880022c 	andhi	r2,r17,8
   11ee4:	1000071e 	bne	r2,zero,11f04 <__muldf3+0x6c0>
   11ee8:	00800434 	movhi	r2,16
   11eec:	8c000234 	orhi	r16,r17,8
   11ef0:	10bfffc4 	addi	r2,r2,-1
   11ef4:	e027883a 	mov	r19,fp
   11ef8:	80a0703a 	and	r16,r16,r2
   11efc:	902d883a 	mov	r22,r18
   11f00:	003f1706 	br	11b60 <_gp+0xfffebaa4>
   11f04:	00800434 	movhi	r2,16
   11f08:	84000234 	orhi	r16,r16,8
   11f0c:	10bfffc4 	addi	r2,r2,-1
   11f10:	80a0703a 	and	r16,r16,r2
   11f14:	003f1206 	br	11b60 <_gp+0xfffebaa4>
   11f18:	147ff604 	addi	r17,r2,-40
   11f1c:	3462983a 	sll	r17,r6,r17
   11f20:	0025883a 	mov	r18,zero
   11f24:	003ef306 	br	11af4 <_gp+0xfffeba38>
   11f28:	3009883a 	mov	r4,r6
   11f2c:	d9400215 	stw	r5,8(sp)
   11f30:	d9800715 	stw	r6,28(sp)
   11f34:	da400415 	stw	r9,16(sp)
   11f38:	da800315 	stw	r10,12(sp)
   11f3c:	001220c0 	call	1220c <__clzsi2>
   11f40:	10800804 	addi	r2,r2,32
   11f44:	da800317 	ldw	r10,12(sp)
   11f48:	da400417 	ldw	r9,16(sp)
   11f4c:	d9800717 	ldw	r6,28(sp)
   11f50:	d9400217 	ldw	r5,8(sp)
   11f54:	003edd06 	br	11acc <_gp+0xfffeba10>
   11f58:	143ff604 	addi	r16,r2,-40
   11f5c:	ac20983a 	sll	r16,r21,r16
   11f60:	002d883a 	mov	r22,zero
   11f64:	003ec106 	br	11a6c <_gp+0xfffeb9b0>
   11f68:	d9800715 	stw	r6,28(sp)
   11f6c:	d9c00215 	stw	r7,8(sp)
   11f70:	da400415 	stw	r9,16(sp)
   11f74:	001220c0 	call	1220c <__clzsi2>
   11f78:	10800804 	addi	r2,r2,32
   11f7c:	da400417 	ldw	r9,16(sp)
   11f80:	d9c00217 	ldw	r7,8(sp)
   11f84:	d9800717 	ldw	r6,28(sp)
   11f88:	003eae06 	br	11a44 <_gp+0xfffeb988>
   11f8c:	00c00044 	movi	r3,1
   11f90:	1887c83a 	sub	r3,r3,r2
   11f94:	01000e04 	movi	r4,56
   11f98:	20fe8516 	blt	r4,r3,119b0 <_gp+0xfffeb8f4>
   11f9c:	010007c4 	movi	r4,31
   11fa0:	20c01b16 	blt	r4,r3,12010 <__muldf3+0x7cc>
   11fa4:	00800804 	movi	r2,32
   11fa8:	10c5c83a 	sub	r2,r2,r3
   11fac:	888a983a 	sll	r5,r17,r2
   11fb0:	90c8d83a 	srl	r4,r18,r3
   11fb4:	9084983a 	sll	r2,r18,r2
   11fb8:	88e2d83a 	srl	r17,r17,r3
   11fbc:	2906b03a 	or	r3,r5,r4
   11fc0:	1004c03a 	cmpne	r2,r2,zero
   11fc4:	1886b03a 	or	r3,r3,r2
   11fc8:	188001cc 	andi	r2,r3,7
   11fcc:	10000726 	beq	r2,zero,11fec <__muldf3+0x7a8>
   11fd0:	188003cc 	andi	r2,r3,15
   11fd4:	01000104 	movi	r4,4
   11fd8:	11000426 	beq	r2,r4,11fec <__muldf3+0x7a8>
   11fdc:	1805883a 	mov	r2,r3
   11fe0:	10c00104 	addi	r3,r2,4
   11fe4:	1885803a 	cmpltu	r2,r3,r2
   11fe8:	88a3883a 	add	r17,r17,r2
   11fec:	8880202c 	andhi	r2,r17,128
   11ff0:	10001c26 	beq	r2,zero,12064 <__muldf3+0x820>
   11ff4:	3027883a 	mov	r19,r6
   11ff8:	00800044 	movi	r2,1
   11ffc:	0021883a 	mov	r16,zero
   12000:	002d883a 	mov	r22,zero
   12004:	003e6e06 	br	119c0 <_gp+0xfffeb904>
   12008:	4007883a 	mov	r3,r8
   1200c:	003f9706 	br	11e6c <_gp+0xfffebdb0>
   12010:	017ff844 	movi	r5,-31
   12014:	2885c83a 	sub	r2,r5,r2
   12018:	888ad83a 	srl	r5,r17,r2
   1201c:	00800804 	movi	r2,32
   12020:	18801a26 	beq	r3,r2,1208c <__muldf3+0x848>
   12024:	01001004 	movi	r4,64
   12028:	20c7c83a 	sub	r3,r4,r3
   1202c:	88e2983a 	sll	r17,r17,r3
   12030:	8ca4b03a 	or	r18,r17,r18
   12034:	9004c03a 	cmpne	r2,r18,zero
   12038:	2884b03a 	or	r2,r5,r2
   1203c:	144001cc 	andi	r17,r2,7
   12040:	88000d1e 	bne	r17,zero,12078 <__muldf3+0x834>
   12044:	0021883a 	mov	r16,zero
   12048:	102cd0fa 	srli	r22,r2,3
   1204c:	3027883a 	mov	r19,r6
   12050:	0005883a 	mov	r2,zero
   12054:	b46cb03a 	or	r22,r22,r17
   12058:	003e5906 	br	119c0 <_gp+0xfffeb904>
   1205c:	1007883a 	mov	r3,r2
   12060:	0023883a 	mov	r17,zero
   12064:	8820927a 	slli	r16,r17,9
   12068:	1805883a 	mov	r2,r3
   1206c:	8822977a 	slli	r17,r17,29
   12070:	8020d33a 	srli	r16,r16,12
   12074:	003ff406 	br	12048 <_gp+0xfffebf8c>
   12078:	10c003cc 	andi	r3,r2,15
   1207c:	01000104 	movi	r4,4
   12080:	193ff626 	beq	r3,r4,1205c <_gp+0xfffebfa0>
   12084:	0023883a 	mov	r17,zero
   12088:	003fd506 	br	11fe0 <_gp+0xfffebf24>
   1208c:	0023883a 	mov	r17,zero
   12090:	003fe706 	br	12030 <_gp+0xfffebf74>
   12094:	00800434 	movhi	r2,16
   12098:	8c000234 	orhi	r16,r17,8
   1209c:	10bfffc4 	addi	r2,r2,-1
   120a0:	3027883a 	mov	r19,r6
   120a4:	80a0703a 	and	r16,r16,r2
   120a8:	902d883a 	mov	r22,r18
   120ac:	003eac06 	br	11b60 <_gp+0xfffebaa4>

000120b0 <__fixdfsi>:
   120b0:	280cd53a 	srli	r6,r5,20
   120b4:	00c00434 	movhi	r3,16
   120b8:	18ffffc4 	addi	r3,r3,-1
   120bc:	3181ffcc 	andi	r6,r6,2047
   120c0:	01c0ff84 	movi	r7,1022
   120c4:	28c6703a 	and	r3,r5,r3
   120c8:	280ad7fa 	srli	r5,r5,31
   120cc:	3980120e 	bge	r7,r6,12118 <__fixdfsi+0x68>
   120d0:	00810744 	movi	r2,1053
   120d4:	11800c16 	blt	r2,r6,12108 <__fixdfsi+0x58>
   120d8:	00810cc4 	movi	r2,1075
   120dc:	1185c83a 	sub	r2,r2,r6
   120e0:	01c007c4 	movi	r7,31
   120e4:	18c00434 	orhi	r3,r3,16
   120e8:	38800d16 	blt	r7,r2,12120 <__fixdfsi+0x70>
   120ec:	31befb44 	addi	r6,r6,-1043
   120f0:	2084d83a 	srl	r2,r4,r2
   120f4:	1986983a 	sll	r3,r3,r6
   120f8:	1884b03a 	or	r2,r3,r2
   120fc:	28000726 	beq	r5,zero,1211c <__fixdfsi+0x6c>
   12100:	0085c83a 	sub	r2,zero,r2
   12104:	f800283a 	ret
   12108:	00a00034 	movhi	r2,32768
   1210c:	10bfffc4 	addi	r2,r2,-1
   12110:	2885883a 	add	r2,r5,r2
   12114:	f800283a 	ret
   12118:	0005883a 	mov	r2,zero
   1211c:	f800283a 	ret
   12120:	008104c4 	movi	r2,1043
   12124:	1185c83a 	sub	r2,r2,r6
   12128:	1884d83a 	srl	r2,r3,r2
   1212c:	003ff306 	br	120fc <_gp+0xfffec040>

00012130 <__floatsidf>:
   12130:	defffd04 	addi	sp,sp,-12
   12134:	dfc00215 	stw	ra,8(sp)
   12138:	dc400115 	stw	r17,4(sp)
   1213c:	dc000015 	stw	r16,0(sp)
   12140:	20002b26 	beq	r4,zero,121f0 <__floatsidf+0xc0>
   12144:	2023883a 	mov	r17,r4
   12148:	2020d7fa 	srli	r16,r4,31
   1214c:	20002d16 	blt	r4,zero,12204 <__floatsidf+0xd4>
   12150:	8809883a 	mov	r4,r17
   12154:	001220c0 	call	1220c <__clzsi2>
   12158:	01410784 	movi	r5,1054
   1215c:	288bc83a 	sub	r5,r5,r2
   12160:	01010cc4 	movi	r4,1075
   12164:	2149c83a 	sub	r4,r4,r5
   12168:	00c007c4 	movi	r3,31
   1216c:	1900160e 	bge	r3,r4,121c8 <__floatsidf+0x98>
   12170:	00c104c4 	movi	r3,1043
   12174:	1947c83a 	sub	r3,r3,r5
   12178:	88c6983a 	sll	r3,r17,r3
   1217c:	00800434 	movhi	r2,16
   12180:	10bfffc4 	addi	r2,r2,-1
   12184:	1886703a 	and	r3,r3,r2
   12188:	2941ffcc 	andi	r5,r5,2047
   1218c:	800d883a 	mov	r6,r16
   12190:	0005883a 	mov	r2,zero
   12194:	280a953a 	slli	r5,r5,20
   12198:	31803fcc 	andi	r6,r6,255
   1219c:	01000434 	movhi	r4,16
   121a0:	300c97fa 	slli	r6,r6,31
   121a4:	213fffc4 	addi	r4,r4,-1
   121a8:	1906703a 	and	r3,r3,r4
   121ac:	1946b03a 	or	r3,r3,r5
   121b0:	1986b03a 	or	r3,r3,r6
   121b4:	dfc00217 	ldw	ra,8(sp)
   121b8:	dc400117 	ldw	r17,4(sp)
   121bc:	dc000017 	ldw	r16,0(sp)
   121c0:	dec00304 	addi	sp,sp,12
   121c4:	f800283a 	ret
   121c8:	00c002c4 	movi	r3,11
   121cc:	1887c83a 	sub	r3,r3,r2
   121d0:	88c6d83a 	srl	r3,r17,r3
   121d4:	8904983a 	sll	r2,r17,r4
   121d8:	01000434 	movhi	r4,16
   121dc:	213fffc4 	addi	r4,r4,-1
   121e0:	2941ffcc 	andi	r5,r5,2047
   121e4:	1906703a 	and	r3,r3,r4
   121e8:	800d883a 	mov	r6,r16
   121ec:	003fe906 	br	12194 <_gp+0xfffec0d8>
   121f0:	000d883a 	mov	r6,zero
   121f4:	000b883a 	mov	r5,zero
   121f8:	0007883a 	mov	r3,zero
   121fc:	0005883a 	mov	r2,zero
   12200:	003fe406 	br	12194 <_gp+0xfffec0d8>
   12204:	0123c83a 	sub	r17,zero,r4
   12208:	003fd106 	br	12150 <_gp+0xfffec094>

0001220c <__clzsi2>:
   1220c:	00bfffd4 	movui	r2,65535
   12210:	11000536 	bltu	r2,r4,12228 <__clzsi2+0x1c>
   12214:	00803fc4 	movi	r2,255
   12218:	11000f36 	bltu	r2,r4,12258 <__clzsi2+0x4c>
   1221c:	00800804 	movi	r2,32
   12220:	0007883a 	mov	r3,zero
   12224:	00000506 	br	1223c <__clzsi2+0x30>
   12228:	00804034 	movhi	r2,256
   1222c:	10bfffc4 	addi	r2,r2,-1
   12230:	11000c2e 	bgeu	r2,r4,12264 <__clzsi2+0x58>
   12234:	00800204 	movi	r2,8
   12238:	00c00604 	movi	r3,24
   1223c:	20c8d83a 	srl	r4,r4,r3
   12240:	00c000b4 	movhi	r3,2
   12244:	18f53004 	addi	r3,r3,-11072
   12248:	1909883a 	add	r4,r3,r4
   1224c:	20c00003 	ldbu	r3,0(r4)
   12250:	10c5c83a 	sub	r2,r2,r3
   12254:	f800283a 	ret
   12258:	00800604 	movi	r2,24
   1225c:	00c00204 	movi	r3,8
   12260:	003ff606 	br	1223c <_gp+0xfffec180>
   12264:	00800404 	movi	r2,16
   12268:	1007883a 	mov	r3,r2
   1226c:	003ff306 	br	1223c <_gp+0xfffec180>

00012270 <__mulsi3>:
   12270:	0005883a 	mov	r2,zero
   12274:	20000726 	beq	r4,zero,12294 <__mulsi3+0x24>
   12278:	20c0004c 	andi	r3,r4,1
   1227c:	2008d07a 	srli	r4,r4,1
   12280:	18000126 	beq	r3,zero,12288 <__mulsi3+0x18>
   12284:	1145883a 	add	r2,r2,r5
   12288:	294b883a 	add	r5,r5,r5
   1228c:	203ffa1e 	bne	r4,zero,12278 <_gp+0xfffec1bc>
   12290:	f800283a 	ret
   12294:	f800283a 	ret

00012298 <_asprintf_r>:
   12298:	deffe304 	addi	sp,sp,-116
   1229c:	dc001a15 	stw	r16,104(sp)
   122a0:	2821883a 	mov	r16,r5
   122a4:	dfc01b15 	stw	ra,108(sp)
   122a8:	d9c01c15 	stw	r7,112(sp)
   122ac:	0080a204 	movi	r2,648
   122b0:	d880030d 	sth	r2,12(sp)
   122b4:	d9c01c04 	addi	r7,sp,112
   122b8:	00bfffc4 	movi	r2,-1
   122bc:	d80b883a 	mov	r5,sp
   122c0:	d8000015 	stw	zero,0(sp)
   122c4:	d8000415 	stw	zero,16(sp)
   122c8:	d8000215 	stw	zero,8(sp)
   122cc:	d8000515 	stw	zero,20(sp)
   122d0:	d880038d 	sth	r2,14(sp)
   122d4:	00138400 	call	13840 <___svfprintf_internal_r>
   122d8:	10000416 	blt	r2,zero,122ec <_asprintf_r+0x54>
   122dc:	d8c00017 	ldw	r3,0(sp)
   122e0:	18000005 	stb	zero,0(r3)
   122e4:	d8c00417 	ldw	r3,16(sp)
   122e8:	80c00015 	stw	r3,0(r16)
   122ec:	dfc01b17 	ldw	ra,108(sp)
   122f0:	dc001a17 	ldw	r16,104(sp)
   122f4:	dec01d04 	addi	sp,sp,116
   122f8:	f800283a 	ret

000122fc <asprintf>:
   122fc:	deffe204 	addi	sp,sp,-120
   12300:	dc001a15 	stw	r16,104(sp)
   12304:	2021883a 	mov	r16,r4
   12308:	dfc01b15 	stw	ra,108(sp)
   1230c:	d9801c15 	stw	r6,112(sp)
   12310:	d9c01d15 	stw	r7,116(sp)
   12314:	008000b4 	movhi	r2,2
   12318:	10b83204 	addi	r2,r2,-7992
   1231c:	11000017 	ldw	r4,0(r2)
   12320:	0080a204 	movi	r2,648
   12324:	280d883a 	mov	r6,r5
   12328:	d880030d 	sth	r2,12(sp)
   1232c:	d9c01c04 	addi	r7,sp,112
   12330:	00bfffc4 	movi	r2,-1
   12334:	d80b883a 	mov	r5,sp
   12338:	d8000015 	stw	zero,0(sp)
   1233c:	d8000415 	stw	zero,16(sp)
   12340:	d8000215 	stw	zero,8(sp)
   12344:	d8000515 	stw	zero,20(sp)
   12348:	d880038d 	sth	r2,14(sp)
   1234c:	00138400 	call	13840 <___svfprintf_internal_r>
   12350:	10000416 	blt	r2,zero,12364 <asprintf+0x68>
   12354:	d8c00017 	ldw	r3,0(sp)
   12358:	18000005 	stb	zero,0(r3)
   1235c:	d8c00417 	ldw	r3,16(sp)
   12360:	80c00015 	stw	r3,0(r16)
   12364:	dfc01b17 	ldw	ra,108(sp)
   12368:	dc001a17 	ldw	r16,104(sp)
   1236c:	dec01e04 	addi	sp,sp,120
   12370:	f800283a 	ret

00012374 <malloc>:
   12374:	008000b4 	movhi	r2,2
   12378:	10b83204 	addi	r2,r2,-7992
   1237c:	200b883a 	mov	r5,r4
   12380:	11000017 	ldw	r4,0(r2)
   12384:	001239c1 	jmpi	1239c <_malloc_r>

00012388 <free>:
   12388:	008000b4 	movhi	r2,2
   1238c:	10b83204 	addi	r2,r2,-7992
   12390:	200b883a 	mov	r5,r4
   12394:	11000017 	ldw	r4,0(r2)
   12398:	00174d01 	jmpi	174d0 <_free_r>

0001239c <_malloc_r>:
   1239c:	defff504 	addi	sp,sp,-44
   123a0:	dc800315 	stw	r18,12(sp)
   123a4:	dfc00a15 	stw	ra,40(sp)
   123a8:	df000915 	stw	fp,36(sp)
   123ac:	ddc00815 	stw	r23,32(sp)
   123b0:	dd800715 	stw	r22,28(sp)
   123b4:	dd400615 	stw	r21,24(sp)
   123b8:	dd000515 	stw	r20,20(sp)
   123bc:	dcc00415 	stw	r19,16(sp)
   123c0:	dc400215 	stw	r17,8(sp)
   123c4:	dc000115 	stw	r16,4(sp)
   123c8:	288002c4 	addi	r2,r5,11
   123cc:	00c00584 	movi	r3,22
   123d0:	2025883a 	mov	r18,r4
   123d4:	18807f2e 	bgeu	r3,r2,125d4 <_malloc_r+0x238>
   123d8:	047ffe04 	movi	r17,-8
   123dc:	1462703a 	and	r17,r2,r17
   123e0:	8800a316 	blt	r17,zero,12670 <_malloc_r+0x2d4>
   123e4:	8940a236 	bltu	r17,r5,12670 <_malloc_r+0x2d4>
   123e8:	001ce800 	call	1ce80 <__malloc_lock>
   123ec:	00807dc4 	movi	r2,503
   123f0:	1441e92e 	bgeu	r2,r17,12b98 <_malloc_r+0x7fc>
   123f4:	8804d27a 	srli	r2,r17,9
   123f8:	1000a126 	beq	r2,zero,12680 <_malloc_r+0x2e4>
   123fc:	00c00104 	movi	r3,4
   12400:	18811e36 	bltu	r3,r2,1287c <_malloc_r+0x4e0>
   12404:	8804d1ba 	srli	r2,r17,6
   12408:	12000e44 	addi	r8,r2,57
   1240c:	11c00e04 	addi	r7,r2,56
   12410:	4209883a 	add	r4,r8,r8
   12414:	04c000b4 	movhi	r19,2
   12418:	2109883a 	add	r4,r4,r4
   1241c:	9cf6ee04 	addi	r19,r19,-9288
   12420:	2109883a 	add	r4,r4,r4
   12424:	9909883a 	add	r4,r19,r4
   12428:	24000117 	ldw	r16,4(r4)
   1242c:	213ffe04 	addi	r4,r4,-8
   12430:	24009726 	beq	r4,r16,12690 <_malloc_r+0x2f4>
   12434:	80800117 	ldw	r2,4(r16)
   12438:	01bfff04 	movi	r6,-4
   1243c:	014003c4 	movi	r5,15
   12440:	1184703a 	and	r2,r2,r6
   12444:	1447c83a 	sub	r3,r2,r17
   12448:	28c00716 	blt	r5,r3,12468 <_malloc_r+0xcc>
   1244c:	1800920e 	bge	r3,zero,12698 <_malloc_r+0x2fc>
   12450:	84000317 	ldw	r16,12(r16)
   12454:	24008e26 	beq	r4,r16,12690 <_malloc_r+0x2f4>
   12458:	80800117 	ldw	r2,4(r16)
   1245c:	1184703a 	and	r2,r2,r6
   12460:	1447c83a 	sub	r3,r2,r17
   12464:	28fff90e 	bge	r5,r3,1244c <_gp+0xfffec390>
   12468:	3809883a 	mov	r4,r7
   1246c:	018000b4 	movhi	r6,2
   12470:	9c000417 	ldw	r16,16(r19)
   12474:	31b6ee04 	addi	r6,r6,-9288
   12478:	32000204 	addi	r8,r6,8
   1247c:	82013426 	beq	r16,r8,12950 <_malloc_r+0x5b4>
   12480:	80c00117 	ldw	r3,4(r16)
   12484:	00bfff04 	movi	r2,-4
   12488:	188e703a 	and	r7,r3,r2
   1248c:	3c45c83a 	sub	r2,r7,r17
   12490:	00c003c4 	movi	r3,15
   12494:	18811f16 	blt	r3,r2,12914 <_malloc_r+0x578>
   12498:	32000515 	stw	r8,20(r6)
   1249c:	32000415 	stw	r8,16(r6)
   124a0:	10007f0e 	bge	r2,zero,126a0 <_malloc_r+0x304>
   124a4:	00807fc4 	movi	r2,511
   124a8:	11c0fd36 	bltu	r2,r7,128a0 <_malloc_r+0x504>
   124ac:	3806d0fa 	srli	r3,r7,3
   124b0:	01c00044 	movi	r7,1
   124b4:	30800117 	ldw	r2,4(r6)
   124b8:	19400044 	addi	r5,r3,1
   124bc:	294b883a 	add	r5,r5,r5
   124c0:	1807d0ba 	srai	r3,r3,2
   124c4:	294b883a 	add	r5,r5,r5
   124c8:	294b883a 	add	r5,r5,r5
   124cc:	298b883a 	add	r5,r5,r6
   124d0:	38c6983a 	sll	r3,r7,r3
   124d4:	29c00017 	ldw	r7,0(r5)
   124d8:	2a7ffe04 	addi	r9,r5,-8
   124dc:	1886b03a 	or	r3,r3,r2
   124e0:	82400315 	stw	r9,12(r16)
   124e4:	81c00215 	stw	r7,8(r16)
   124e8:	30c00115 	stw	r3,4(r6)
   124ec:	2c000015 	stw	r16,0(r5)
   124f0:	3c000315 	stw	r16,12(r7)
   124f4:	2005d0ba 	srai	r2,r4,2
   124f8:	01400044 	movi	r5,1
   124fc:	288a983a 	sll	r5,r5,r2
   12500:	19406f36 	bltu	r3,r5,126c0 <_malloc_r+0x324>
   12504:	28c4703a 	and	r2,r5,r3
   12508:	10000a1e 	bne	r2,zero,12534 <_malloc_r+0x198>
   1250c:	00bfff04 	movi	r2,-4
   12510:	294b883a 	add	r5,r5,r5
   12514:	2088703a 	and	r4,r4,r2
   12518:	28c4703a 	and	r2,r5,r3
   1251c:	21000104 	addi	r4,r4,4
   12520:	1000041e 	bne	r2,zero,12534 <_malloc_r+0x198>
   12524:	294b883a 	add	r5,r5,r5
   12528:	28c4703a 	and	r2,r5,r3
   1252c:	21000104 	addi	r4,r4,4
   12530:	103ffc26 	beq	r2,zero,12524 <_gp+0xfffec468>
   12534:	02bfff04 	movi	r10,-4
   12538:	024003c4 	movi	r9,15
   1253c:	21800044 	addi	r6,r4,1
   12540:	318d883a 	add	r6,r6,r6
   12544:	318d883a 	add	r6,r6,r6
   12548:	318d883a 	add	r6,r6,r6
   1254c:	998d883a 	add	r6,r19,r6
   12550:	333ffe04 	addi	r12,r6,-8
   12554:	2017883a 	mov	r11,r4
   12558:	31800104 	addi	r6,r6,4
   1255c:	34000017 	ldw	r16,0(r6)
   12560:	31fffd04 	addi	r7,r6,-12
   12564:	81c0041e 	bne	r16,r7,12578 <_malloc_r+0x1dc>
   12568:	0000fb06 	br	12958 <_malloc_r+0x5bc>
   1256c:	1801030e 	bge	r3,zero,1297c <_malloc_r+0x5e0>
   12570:	84000317 	ldw	r16,12(r16)
   12574:	81c0f826 	beq	r16,r7,12958 <_malloc_r+0x5bc>
   12578:	80800117 	ldw	r2,4(r16)
   1257c:	1284703a 	and	r2,r2,r10
   12580:	1447c83a 	sub	r3,r2,r17
   12584:	48fff90e 	bge	r9,r3,1256c <_gp+0xfffec4b0>
   12588:	80800317 	ldw	r2,12(r16)
   1258c:	81000217 	ldw	r4,8(r16)
   12590:	89400054 	ori	r5,r17,1
   12594:	81400115 	stw	r5,4(r16)
   12598:	20800315 	stw	r2,12(r4)
   1259c:	11000215 	stw	r4,8(r2)
   125a0:	8463883a 	add	r17,r16,r17
   125a4:	9c400515 	stw	r17,20(r19)
   125a8:	9c400415 	stw	r17,16(r19)
   125ac:	18800054 	ori	r2,r3,1
   125b0:	88800115 	stw	r2,4(r17)
   125b4:	8a000315 	stw	r8,12(r17)
   125b8:	8a000215 	stw	r8,8(r17)
   125bc:	88e3883a 	add	r17,r17,r3
   125c0:	88c00015 	stw	r3,0(r17)
   125c4:	9009883a 	mov	r4,r18
   125c8:	001ce840 	call	1ce84 <__malloc_unlock>
   125cc:	80800204 	addi	r2,r16,8
   125d0:	00001b06 	br	12640 <_malloc_r+0x2a4>
   125d4:	04400404 	movi	r17,16
   125d8:	89402536 	bltu	r17,r5,12670 <_malloc_r+0x2d4>
   125dc:	001ce800 	call	1ce80 <__malloc_lock>
   125e0:	00800184 	movi	r2,6
   125e4:	01000084 	movi	r4,2
   125e8:	04c000b4 	movhi	r19,2
   125ec:	1085883a 	add	r2,r2,r2
   125f0:	9cf6ee04 	addi	r19,r19,-9288
   125f4:	1085883a 	add	r2,r2,r2
   125f8:	9885883a 	add	r2,r19,r2
   125fc:	14000117 	ldw	r16,4(r2)
   12600:	10fffe04 	addi	r3,r2,-8
   12604:	80c0d926 	beq	r16,r3,1296c <_malloc_r+0x5d0>
   12608:	80c00117 	ldw	r3,4(r16)
   1260c:	81000317 	ldw	r4,12(r16)
   12610:	00bfff04 	movi	r2,-4
   12614:	1884703a 	and	r2,r3,r2
   12618:	81400217 	ldw	r5,8(r16)
   1261c:	8085883a 	add	r2,r16,r2
   12620:	10c00117 	ldw	r3,4(r2)
   12624:	29000315 	stw	r4,12(r5)
   12628:	21400215 	stw	r5,8(r4)
   1262c:	18c00054 	ori	r3,r3,1
   12630:	10c00115 	stw	r3,4(r2)
   12634:	9009883a 	mov	r4,r18
   12638:	001ce840 	call	1ce84 <__malloc_unlock>
   1263c:	80800204 	addi	r2,r16,8
   12640:	dfc00a17 	ldw	ra,40(sp)
   12644:	df000917 	ldw	fp,36(sp)
   12648:	ddc00817 	ldw	r23,32(sp)
   1264c:	dd800717 	ldw	r22,28(sp)
   12650:	dd400617 	ldw	r21,24(sp)
   12654:	dd000517 	ldw	r20,20(sp)
   12658:	dcc00417 	ldw	r19,16(sp)
   1265c:	dc800317 	ldw	r18,12(sp)
   12660:	dc400217 	ldw	r17,8(sp)
   12664:	dc000117 	ldw	r16,4(sp)
   12668:	dec00b04 	addi	sp,sp,44
   1266c:	f800283a 	ret
   12670:	00800304 	movi	r2,12
   12674:	90800015 	stw	r2,0(r18)
   12678:	0005883a 	mov	r2,zero
   1267c:	003ff006 	br	12640 <_gp+0xfffec584>
   12680:	01002004 	movi	r4,128
   12684:	02001004 	movi	r8,64
   12688:	01c00fc4 	movi	r7,63
   1268c:	003f6106 	br	12414 <_gp+0xfffec358>
   12690:	4009883a 	mov	r4,r8
   12694:	003f7506 	br	1246c <_gp+0xfffec3b0>
   12698:	81000317 	ldw	r4,12(r16)
   1269c:	003fde06 	br	12618 <_gp+0xfffec55c>
   126a0:	81c5883a 	add	r2,r16,r7
   126a4:	11400117 	ldw	r5,4(r2)
   126a8:	9009883a 	mov	r4,r18
   126ac:	29400054 	ori	r5,r5,1
   126b0:	11400115 	stw	r5,4(r2)
   126b4:	001ce840 	call	1ce84 <__malloc_unlock>
   126b8:	80800204 	addi	r2,r16,8
   126bc:	003fe006 	br	12640 <_gp+0xfffec584>
   126c0:	9c000217 	ldw	r16,8(r19)
   126c4:	00bfff04 	movi	r2,-4
   126c8:	85800117 	ldw	r22,4(r16)
   126cc:	b0ac703a 	and	r22,r22,r2
   126d0:	b4400336 	bltu	r22,r17,126e0 <_malloc_r+0x344>
   126d4:	b445c83a 	sub	r2,r22,r17
   126d8:	00c003c4 	movi	r3,15
   126dc:	18805d16 	blt	r3,r2,12854 <_malloc_r+0x4b8>
   126e0:	05c000b4 	movhi	r23,2
   126e4:	008000b4 	movhi	r2,2
   126e8:	10bab004 	addi	r2,r2,-5440
   126ec:	bdf83304 	addi	r23,r23,-7988
   126f0:	15400017 	ldw	r21,0(r2)
   126f4:	b8c00017 	ldw	r3,0(r23)
   126f8:	00bfffc4 	movi	r2,-1
   126fc:	858d883a 	add	r6,r16,r22
   12700:	8d6b883a 	add	r21,r17,r21
   12704:	1880ea26 	beq	r3,r2,12ab0 <_malloc_r+0x714>
   12708:	ad4403c4 	addi	r21,r21,4111
   1270c:	00bc0004 	movi	r2,-4096
   12710:	a8aa703a 	and	r21,r21,r2
   12714:	a80b883a 	mov	r5,r21
   12718:	9009883a 	mov	r4,r18
   1271c:	d9800015 	stw	r6,0(sp)
   12720:	0012cd00 	call	12cd0 <_sbrk_r>
   12724:	1029883a 	mov	r20,r2
   12728:	00bfffc4 	movi	r2,-1
   1272c:	d9800017 	ldw	r6,0(sp)
   12730:	a080e826 	beq	r20,r2,12ad4 <_malloc_r+0x738>
   12734:	a180a636 	bltu	r20,r6,129d0 <_malloc_r+0x634>
   12738:	070000b4 	movhi	fp,2
   1273c:	e73ac604 	addi	fp,fp,-5352
   12740:	e0800017 	ldw	r2,0(fp)
   12744:	a887883a 	add	r3,r21,r2
   12748:	e0c00015 	stw	r3,0(fp)
   1274c:	3500e626 	beq	r6,r20,12ae8 <_malloc_r+0x74c>
   12750:	b9000017 	ldw	r4,0(r23)
   12754:	00bfffc4 	movi	r2,-1
   12758:	2080ee26 	beq	r4,r2,12b14 <_malloc_r+0x778>
   1275c:	a185c83a 	sub	r2,r20,r6
   12760:	10c5883a 	add	r2,r2,r3
   12764:	e0800015 	stw	r2,0(fp)
   12768:	a0c001cc 	andi	r3,r20,7
   1276c:	1800bc26 	beq	r3,zero,12a60 <_malloc_r+0x6c4>
   12770:	a0e9c83a 	sub	r20,r20,r3
   12774:	00840204 	movi	r2,4104
   12778:	a5000204 	addi	r20,r20,8
   1277c:	10c7c83a 	sub	r3,r2,r3
   12780:	a545883a 	add	r2,r20,r21
   12784:	1083ffcc 	andi	r2,r2,4095
   12788:	18abc83a 	sub	r21,r3,r2
   1278c:	a80b883a 	mov	r5,r21
   12790:	9009883a 	mov	r4,r18
   12794:	0012cd00 	call	12cd0 <_sbrk_r>
   12798:	00ffffc4 	movi	r3,-1
   1279c:	10c0e126 	beq	r2,r3,12b24 <_malloc_r+0x788>
   127a0:	1505c83a 	sub	r2,r2,r20
   127a4:	1545883a 	add	r2,r2,r21
   127a8:	10800054 	ori	r2,r2,1
   127ac:	e0c00017 	ldw	r3,0(fp)
   127b0:	9d000215 	stw	r20,8(r19)
   127b4:	a0800115 	stw	r2,4(r20)
   127b8:	a8c7883a 	add	r3,r21,r3
   127bc:	e0c00015 	stw	r3,0(fp)
   127c0:	84c00e26 	beq	r16,r19,127fc <_malloc_r+0x460>
   127c4:	018003c4 	movi	r6,15
   127c8:	3580a72e 	bgeu	r6,r22,12a68 <_malloc_r+0x6cc>
   127cc:	81400117 	ldw	r5,4(r16)
   127d0:	013ffe04 	movi	r4,-8
   127d4:	b0bffd04 	addi	r2,r22,-12
   127d8:	1104703a 	and	r2,r2,r4
   127dc:	2900004c 	andi	r4,r5,1
   127e0:	2088b03a 	or	r4,r4,r2
   127e4:	81000115 	stw	r4,4(r16)
   127e8:	01400144 	movi	r5,5
   127ec:	8089883a 	add	r4,r16,r2
   127f0:	21400115 	stw	r5,4(r4)
   127f4:	21400215 	stw	r5,8(r4)
   127f8:	3080cd36 	bltu	r6,r2,12b30 <_malloc_r+0x794>
   127fc:	008000b4 	movhi	r2,2
   12800:	10baaf04 	addi	r2,r2,-5444
   12804:	11000017 	ldw	r4,0(r2)
   12808:	20c0012e 	bgeu	r4,r3,12810 <_malloc_r+0x474>
   1280c:	10c00015 	stw	r3,0(r2)
   12810:	008000b4 	movhi	r2,2
   12814:	10baae04 	addi	r2,r2,-5448
   12818:	11000017 	ldw	r4,0(r2)
   1281c:	9c000217 	ldw	r16,8(r19)
   12820:	20c0012e 	bgeu	r4,r3,12828 <_malloc_r+0x48c>
   12824:	10c00015 	stw	r3,0(r2)
   12828:	80c00117 	ldw	r3,4(r16)
   1282c:	00bfff04 	movi	r2,-4
   12830:	1886703a 	and	r3,r3,r2
   12834:	1c45c83a 	sub	r2,r3,r17
   12838:	1c400236 	bltu	r3,r17,12844 <_malloc_r+0x4a8>
   1283c:	00c003c4 	movi	r3,15
   12840:	18800416 	blt	r3,r2,12854 <_malloc_r+0x4b8>
   12844:	9009883a 	mov	r4,r18
   12848:	001ce840 	call	1ce84 <__malloc_unlock>
   1284c:	0005883a 	mov	r2,zero
   12850:	003f7b06 	br	12640 <_gp+0xfffec584>
   12854:	88c00054 	ori	r3,r17,1
   12858:	80c00115 	stw	r3,4(r16)
   1285c:	8463883a 	add	r17,r16,r17
   12860:	10800054 	ori	r2,r2,1
   12864:	9c400215 	stw	r17,8(r19)
   12868:	88800115 	stw	r2,4(r17)
   1286c:	9009883a 	mov	r4,r18
   12870:	001ce840 	call	1ce84 <__malloc_unlock>
   12874:	80800204 	addi	r2,r16,8
   12878:	003f7106 	br	12640 <_gp+0xfffec584>
   1287c:	00c00504 	movi	r3,20
   12880:	18804a2e 	bgeu	r3,r2,129ac <_malloc_r+0x610>
   12884:	00c01504 	movi	r3,84
   12888:	18806e36 	bltu	r3,r2,12a44 <_malloc_r+0x6a8>
   1288c:	8804d33a 	srli	r2,r17,12
   12890:	12001bc4 	addi	r8,r2,111
   12894:	11c01b84 	addi	r7,r2,110
   12898:	4209883a 	add	r4,r8,r8
   1289c:	003edd06 	br	12414 <_gp+0xfffec358>
   128a0:	3804d27a 	srli	r2,r7,9
   128a4:	00c00104 	movi	r3,4
   128a8:	1880442e 	bgeu	r3,r2,129bc <_malloc_r+0x620>
   128ac:	00c00504 	movi	r3,20
   128b0:	18808136 	bltu	r3,r2,12ab8 <_malloc_r+0x71c>
   128b4:	11401704 	addi	r5,r2,92
   128b8:	10c016c4 	addi	r3,r2,91
   128bc:	294b883a 	add	r5,r5,r5
   128c0:	294b883a 	add	r5,r5,r5
   128c4:	294b883a 	add	r5,r5,r5
   128c8:	994b883a 	add	r5,r19,r5
   128cc:	28800017 	ldw	r2,0(r5)
   128d0:	018000b4 	movhi	r6,2
   128d4:	297ffe04 	addi	r5,r5,-8
   128d8:	31b6ee04 	addi	r6,r6,-9288
   128dc:	28806526 	beq	r5,r2,12a74 <_malloc_r+0x6d8>
   128e0:	01bfff04 	movi	r6,-4
   128e4:	10c00117 	ldw	r3,4(r2)
   128e8:	1986703a 	and	r3,r3,r6
   128ec:	38c0022e 	bgeu	r7,r3,128f8 <_malloc_r+0x55c>
   128f0:	10800217 	ldw	r2,8(r2)
   128f4:	28bffb1e 	bne	r5,r2,128e4 <_gp+0xfffec828>
   128f8:	11400317 	ldw	r5,12(r2)
   128fc:	98c00117 	ldw	r3,4(r19)
   12900:	81400315 	stw	r5,12(r16)
   12904:	80800215 	stw	r2,8(r16)
   12908:	2c000215 	stw	r16,8(r5)
   1290c:	14000315 	stw	r16,12(r2)
   12910:	003ef806 	br	124f4 <_gp+0xfffec438>
   12914:	88c00054 	ori	r3,r17,1
   12918:	80c00115 	stw	r3,4(r16)
   1291c:	8463883a 	add	r17,r16,r17
   12920:	34400515 	stw	r17,20(r6)
   12924:	34400415 	stw	r17,16(r6)
   12928:	10c00054 	ori	r3,r2,1
   1292c:	8a000315 	stw	r8,12(r17)
   12930:	8a000215 	stw	r8,8(r17)
   12934:	88c00115 	stw	r3,4(r17)
   12938:	88a3883a 	add	r17,r17,r2
   1293c:	88800015 	stw	r2,0(r17)
   12940:	9009883a 	mov	r4,r18
   12944:	001ce840 	call	1ce84 <__malloc_unlock>
   12948:	80800204 	addi	r2,r16,8
   1294c:	003f3c06 	br	12640 <_gp+0xfffec584>
   12950:	30c00117 	ldw	r3,4(r6)
   12954:	003ee706 	br	124f4 <_gp+0xfffec438>
   12958:	5ac00044 	addi	r11,r11,1
   1295c:	588000cc 	andi	r2,r11,3
   12960:	31800204 	addi	r6,r6,8
   12964:	103efd1e 	bne	r2,zero,1255c <_gp+0xfffec4a0>
   12968:	00002406 	br	129fc <_malloc_r+0x660>
   1296c:	14000317 	ldw	r16,12(r2)
   12970:	143f251e 	bne	r2,r16,12608 <_gp+0xfffec54c>
   12974:	21000084 	addi	r4,r4,2
   12978:	003ebc06 	br	1246c <_gp+0xfffec3b0>
   1297c:	8085883a 	add	r2,r16,r2
   12980:	10c00117 	ldw	r3,4(r2)
   12984:	81000317 	ldw	r4,12(r16)
   12988:	81400217 	ldw	r5,8(r16)
   1298c:	18c00054 	ori	r3,r3,1
   12990:	10c00115 	stw	r3,4(r2)
   12994:	29000315 	stw	r4,12(r5)
   12998:	21400215 	stw	r5,8(r4)
   1299c:	9009883a 	mov	r4,r18
   129a0:	001ce840 	call	1ce84 <__malloc_unlock>
   129a4:	80800204 	addi	r2,r16,8
   129a8:	003f2506 	br	12640 <_gp+0xfffec584>
   129ac:	12001704 	addi	r8,r2,92
   129b0:	11c016c4 	addi	r7,r2,91
   129b4:	4209883a 	add	r4,r8,r8
   129b8:	003e9606 	br	12414 <_gp+0xfffec358>
   129bc:	3804d1ba 	srli	r2,r7,6
   129c0:	11400e44 	addi	r5,r2,57
   129c4:	10c00e04 	addi	r3,r2,56
   129c8:	294b883a 	add	r5,r5,r5
   129cc:	003fbc06 	br	128c0 <_gp+0xfffec804>
   129d0:	84ff5926 	beq	r16,r19,12738 <_gp+0xfffec67c>
   129d4:	008000b4 	movhi	r2,2
   129d8:	10b6ee04 	addi	r2,r2,-9288
   129dc:	14000217 	ldw	r16,8(r2)
   129e0:	00bfff04 	movi	r2,-4
   129e4:	80c00117 	ldw	r3,4(r16)
   129e8:	1886703a 	and	r3,r3,r2
   129ec:	003f9106 	br	12834 <_gp+0xfffec778>
   129f0:	60800217 	ldw	r2,8(r12)
   129f4:	213fffc4 	addi	r4,r4,-1
   129f8:	1300651e 	bne	r2,r12,12b90 <_malloc_r+0x7f4>
   129fc:	208000cc 	andi	r2,r4,3
   12a00:	633ffe04 	addi	r12,r12,-8
   12a04:	103ffa1e 	bne	r2,zero,129f0 <_gp+0xfffec934>
   12a08:	98800117 	ldw	r2,4(r19)
   12a0c:	0146303a 	nor	r3,zero,r5
   12a10:	1884703a 	and	r2,r3,r2
   12a14:	98800115 	stw	r2,4(r19)
   12a18:	294b883a 	add	r5,r5,r5
   12a1c:	117f2836 	bltu	r2,r5,126c0 <_gp+0xfffec604>
   12a20:	283f2726 	beq	r5,zero,126c0 <_gp+0xfffec604>
   12a24:	2886703a 	and	r3,r5,r2
   12a28:	5809883a 	mov	r4,r11
   12a2c:	183ec31e 	bne	r3,zero,1253c <_gp+0xfffec480>
   12a30:	294b883a 	add	r5,r5,r5
   12a34:	2886703a 	and	r3,r5,r2
   12a38:	21000104 	addi	r4,r4,4
   12a3c:	183ffc26 	beq	r3,zero,12a30 <_gp+0xfffec974>
   12a40:	003ebe06 	br	1253c <_gp+0xfffec480>
   12a44:	00c05504 	movi	r3,340
   12a48:	18801236 	bltu	r3,r2,12a94 <_malloc_r+0x6f8>
   12a4c:	8804d3fa 	srli	r2,r17,15
   12a50:	12001e04 	addi	r8,r2,120
   12a54:	11c01dc4 	addi	r7,r2,119
   12a58:	4209883a 	add	r4,r8,r8
   12a5c:	003e6d06 	br	12414 <_gp+0xfffec358>
   12a60:	00c40004 	movi	r3,4096
   12a64:	003f4606 	br	12780 <_gp+0xfffec6c4>
   12a68:	00800044 	movi	r2,1
   12a6c:	a0800115 	stw	r2,4(r20)
   12a70:	003f7406 	br	12844 <_gp+0xfffec788>
   12a74:	1805d0ba 	srai	r2,r3,2
   12a78:	01c00044 	movi	r7,1
   12a7c:	30c00117 	ldw	r3,4(r6)
   12a80:	388e983a 	sll	r7,r7,r2
   12a84:	2805883a 	mov	r2,r5
   12a88:	38c6b03a 	or	r3,r7,r3
   12a8c:	30c00115 	stw	r3,4(r6)
   12a90:	003f9b06 	br	12900 <_gp+0xfffec844>
   12a94:	00c15504 	movi	r3,1364
   12a98:	18801a36 	bltu	r3,r2,12b04 <_malloc_r+0x768>
   12a9c:	8804d4ba 	srli	r2,r17,18
   12aa0:	12001f44 	addi	r8,r2,125
   12aa4:	11c01f04 	addi	r7,r2,124
   12aa8:	4209883a 	add	r4,r8,r8
   12aac:	003e5906 	br	12414 <_gp+0xfffec358>
   12ab0:	ad400404 	addi	r21,r21,16
   12ab4:	003f1706 	br	12714 <_gp+0xfffec658>
   12ab8:	00c01504 	movi	r3,84
   12abc:	18802336 	bltu	r3,r2,12b4c <_malloc_r+0x7b0>
   12ac0:	3804d33a 	srli	r2,r7,12
   12ac4:	11401bc4 	addi	r5,r2,111
   12ac8:	10c01b84 	addi	r3,r2,110
   12acc:	294b883a 	add	r5,r5,r5
   12ad0:	003f7b06 	br	128c0 <_gp+0xfffec804>
   12ad4:	9c000217 	ldw	r16,8(r19)
   12ad8:	00bfff04 	movi	r2,-4
   12adc:	80c00117 	ldw	r3,4(r16)
   12ae0:	1886703a 	and	r3,r3,r2
   12ae4:	003f5306 	br	12834 <_gp+0xfffec778>
   12ae8:	3083ffcc 	andi	r2,r6,4095
   12aec:	103f181e 	bne	r2,zero,12750 <_gp+0xfffec694>
   12af0:	99000217 	ldw	r4,8(r19)
   12af4:	b545883a 	add	r2,r22,r21
   12af8:	10800054 	ori	r2,r2,1
   12afc:	20800115 	stw	r2,4(r4)
   12b00:	003f3e06 	br	127fc <_gp+0xfffec740>
   12b04:	01003f84 	movi	r4,254
   12b08:	02001fc4 	movi	r8,127
   12b0c:	01c01f84 	movi	r7,126
   12b10:	003e4006 	br	12414 <_gp+0xfffec358>
   12b14:	008000b4 	movhi	r2,2
   12b18:	10b83304 	addi	r2,r2,-7988
   12b1c:	15000015 	stw	r20,0(r2)
   12b20:	003f1106 	br	12768 <_gp+0xfffec6ac>
   12b24:	00800044 	movi	r2,1
   12b28:	002b883a 	mov	r21,zero
   12b2c:	003f1f06 	br	127ac <_gp+0xfffec6f0>
   12b30:	81400204 	addi	r5,r16,8
   12b34:	9009883a 	mov	r4,r18
   12b38:	00174d00 	call	174d0 <_free_r>
   12b3c:	008000b4 	movhi	r2,2
   12b40:	10bac604 	addi	r2,r2,-5352
   12b44:	10c00017 	ldw	r3,0(r2)
   12b48:	003f2c06 	br	127fc <_gp+0xfffec740>
   12b4c:	00c05504 	movi	r3,340
   12b50:	18800536 	bltu	r3,r2,12b68 <_malloc_r+0x7cc>
   12b54:	3804d3fa 	srli	r2,r7,15
   12b58:	11401e04 	addi	r5,r2,120
   12b5c:	10c01dc4 	addi	r3,r2,119
   12b60:	294b883a 	add	r5,r5,r5
   12b64:	003f5606 	br	128c0 <_gp+0xfffec804>
   12b68:	00c15504 	movi	r3,1364
   12b6c:	18800536 	bltu	r3,r2,12b84 <_malloc_r+0x7e8>
   12b70:	3804d4ba 	srli	r2,r7,18
   12b74:	11401f44 	addi	r5,r2,125
   12b78:	10c01f04 	addi	r3,r2,124
   12b7c:	294b883a 	add	r5,r5,r5
   12b80:	003f4f06 	br	128c0 <_gp+0xfffec804>
   12b84:	01403f84 	movi	r5,254
   12b88:	00c01f84 	movi	r3,126
   12b8c:	003f4c06 	br	128c0 <_gp+0xfffec804>
   12b90:	98800117 	ldw	r2,4(r19)
   12b94:	003fa006 	br	12a18 <_gp+0xfffec95c>
   12b98:	8808d0fa 	srli	r4,r17,3
   12b9c:	20800044 	addi	r2,r4,1
   12ba0:	1085883a 	add	r2,r2,r2
   12ba4:	003e9006 	br	125e8 <_gp+0xfffec52c>

00012ba8 <memset>:
   12ba8:	20c000cc 	andi	r3,r4,3
   12bac:	2005883a 	mov	r2,r4
   12bb0:	18004426 	beq	r3,zero,12cc4 <memset+0x11c>
   12bb4:	31ffffc4 	addi	r7,r6,-1
   12bb8:	30004026 	beq	r6,zero,12cbc <memset+0x114>
   12bbc:	2813883a 	mov	r9,r5
   12bc0:	200d883a 	mov	r6,r4
   12bc4:	2007883a 	mov	r3,r4
   12bc8:	00000406 	br	12bdc <memset+0x34>
   12bcc:	3a3fffc4 	addi	r8,r7,-1
   12bd0:	31800044 	addi	r6,r6,1
   12bd4:	38003926 	beq	r7,zero,12cbc <memset+0x114>
   12bd8:	400f883a 	mov	r7,r8
   12bdc:	18c00044 	addi	r3,r3,1
   12be0:	32400005 	stb	r9,0(r6)
   12be4:	1a0000cc 	andi	r8,r3,3
   12be8:	403ff81e 	bne	r8,zero,12bcc <_gp+0xfffecb10>
   12bec:	010000c4 	movi	r4,3
   12bf0:	21c02d2e 	bgeu	r4,r7,12ca8 <memset+0x100>
   12bf4:	29003fcc 	andi	r4,r5,255
   12bf8:	200c923a 	slli	r6,r4,8
   12bfc:	3108b03a 	or	r4,r6,r4
   12c00:	200c943a 	slli	r6,r4,16
   12c04:	218cb03a 	or	r6,r4,r6
   12c08:	010003c4 	movi	r4,15
   12c0c:	21c0182e 	bgeu	r4,r7,12c70 <memset+0xc8>
   12c10:	3b3ffc04 	addi	r12,r7,-16
   12c14:	6018d13a 	srli	r12,r12,4
   12c18:	1a000104 	addi	r8,r3,4
   12c1c:	1ac00204 	addi	r11,r3,8
   12c20:	6008913a 	slli	r4,r12,4
   12c24:	1a800304 	addi	r10,r3,12
   12c28:	1813883a 	mov	r9,r3
   12c2c:	21000504 	addi	r4,r4,20
   12c30:	1909883a 	add	r4,r3,r4
   12c34:	49800015 	stw	r6,0(r9)
   12c38:	41800015 	stw	r6,0(r8)
   12c3c:	59800015 	stw	r6,0(r11)
   12c40:	51800015 	stw	r6,0(r10)
   12c44:	42000404 	addi	r8,r8,16
   12c48:	4a400404 	addi	r9,r9,16
   12c4c:	5ac00404 	addi	r11,r11,16
   12c50:	52800404 	addi	r10,r10,16
   12c54:	413ff71e 	bne	r8,r4,12c34 <_gp+0xfffecb78>
   12c58:	63000044 	addi	r12,r12,1
   12c5c:	6018913a 	slli	r12,r12,4
   12c60:	39c003cc 	andi	r7,r7,15
   12c64:	010000c4 	movi	r4,3
   12c68:	1b07883a 	add	r3,r3,r12
   12c6c:	21c00e2e 	bgeu	r4,r7,12ca8 <memset+0x100>
   12c70:	1813883a 	mov	r9,r3
   12c74:	3811883a 	mov	r8,r7
   12c78:	010000c4 	movi	r4,3
   12c7c:	49800015 	stw	r6,0(r9)
   12c80:	423fff04 	addi	r8,r8,-4
   12c84:	4a400104 	addi	r9,r9,4
   12c88:	223ffc36 	bltu	r4,r8,12c7c <_gp+0xfffecbc0>
   12c8c:	393fff04 	addi	r4,r7,-4
   12c90:	2008d0ba 	srli	r4,r4,2
   12c94:	39c000cc 	andi	r7,r7,3
   12c98:	21000044 	addi	r4,r4,1
   12c9c:	2109883a 	add	r4,r4,r4
   12ca0:	2109883a 	add	r4,r4,r4
   12ca4:	1907883a 	add	r3,r3,r4
   12ca8:	38000526 	beq	r7,zero,12cc0 <memset+0x118>
   12cac:	19cf883a 	add	r7,r3,r7
   12cb0:	19400005 	stb	r5,0(r3)
   12cb4:	18c00044 	addi	r3,r3,1
   12cb8:	38fffd1e 	bne	r7,r3,12cb0 <_gp+0xfffecbf4>
   12cbc:	f800283a 	ret
   12cc0:	f800283a 	ret
   12cc4:	2007883a 	mov	r3,r4
   12cc8:	300f883a 	mov	r7,r6
   12ccc:	003fc706 	br	12bec <_gp+0xfffecb30>

00012cd0 <_sbrk_r>:
   12cd0:	defffd04 	addi	sp,sp,-12
   12cd4:	dc000015 	stw	r16,0(sp)
   12cd8:	040000b4 	movhi	r16,2
   12cdc:	dc400115 	stw	r17,4(sp)
   12ce0:	843ab104 	addi	r16,r16,-5436
   12ce4:	2023883a 	mov	r17,r4
   12ce8:	2809883a 	mov	r4,r5
   12cec:	dfc00215 	stw	ra,8(sp)
   12cf0:	80000015 	stw	zero,0(r16)
   12cf4:	001cec00 	call	1cec0 <sbrk>
   12cf8:	00ffffc4 	movi	r3,-1
   12cfc:	10c00526 	beq	r2,r3,12d14 <_sbrk_r+0x44>
   12d00:	dfc00217 	ldw	ra,8(sp)
   12d04:	dc400117 	ldw	r17,4(sp)
   12d08:	dc000017 	ldw	r16,0(sp)
   12d0c:	dec00304 	addi	sp,sp,12
   12d10:	f800283a 	ret
   12d14:	80c00017 	ldw	r3,0(r16)
   12d18:	183ff926 	beq	r3,zero,12d00 <_gp+0xfffecc44>
   12d1c:	88c00015 	stw	r3,0(r17)
   12d20:	003ff706 	br	12d00 <_gp+0xfffecc44>

00012d24 <_sprintf_r>:
   12d24:	deffe404 	addi	sp,sp,-112
   12d28:	2807883a 	mov	r3,r5
   12d2c:	dfc01a15 	stw	ra,104(sp)
   12d30:	d9c01b15 	stw	r7,108(sp)
   12d34:	00a00034 	movhi	r2,32768
   12d38:	10bfffc4 	addi	r2,r2,-1
   12d3c:	02008204 	movi	r8,520
   12d40:	d8800215 	stw	r2,8(sp)
   12d44:	d8800515 	stw	r2,20(sp)
   12d48:	d9c01b04 	addi	r7,sp,108
   12d4c:	d80b883a 	mov	r5,sp
   12d50:	00bfffc4 	movi	r2,-1
   12d54:	d8c00015 	stw	r3,0(sp)
   12d58:	d8c00415 	stw	r3,16(sp)
   12d5c:	da00030d 	sth	r8,12(sp)
   12d60:	d880038d 	sth	r2,14(sp)
   12d64:	00138400 	call	13840 <___svfprintf_internal_r>
   12d68:	d8c00017 	ldw	r3,0(sp)
   12d6c:	18000005 	stb	zero,0(r3)
   12d70:	dfc01a17 	ldw	ra,104(sp)
   12d74:	dec01c04 	addi	sp,sp,112
   12d78:	f800283a 	ret

00012d7c <sprintf>:
   12d7c:	deffe304 	addi	sp,sp,-116
   12d80:	2007883a 	mov	r3,r4
   12d84:	dfc01a15 	stw	ra,104(sp)
   12d88:	d9801b15 	stw	r6,108(sp)
   12d8c:	d9c01c15 	stw	r7,112(sp)
   12d90:	010000b4 	movhi	r4,2
   12d94:	21383204 	addi	r4,r4,-7992
   12d98:	21000017 	ldw	r4,0(r4)
   12d9c:	00a00034 	movhi	r2,32768
   12da0:	10bfffc4 	addi	r2,r2,-1
   12da4:	280d883a 	mov	r6,r5
   12da8:	02008204 	movi	r8,520
   12dac:	d8800215 	stw	r2,8(sp)
   12db0:	d8800515 	stw	r2,20(sp)
   12db4:	d9c01b04 	addi	r7,sp,108
   12db8:	d80b883a 	mov	r5,sp
   12dbc:	00bfffc4 	movi	r2,-1
   12dc0:	d8c00015 	stw	r3,0(sp)
   12dc4:	d8c00415 	stw	r3,16(sp)
   12dc8:	da00030d 	sth	r8,12(sp)
   12dcc:	d880038d 	sth	r2,14(sp)
   12dd0:	00138400 	call	13840 <___svfprintf_internal_r>
   12dd4:	d8c00017 	ldw	r3,0(sp)
   12dd8:	18000005 	stb	zero,0(r3)
   12ddc:	dfc01a17 	ldw	ra,104(sp)
   12de0:	dec01d04 	addi	sp,sp,116
   12de4:	f800283a 	ret

00012de8 <strchr>:
   12de8:	2ac03fcc 	andi	r11,r5,255
   12dec:	2813883a 	mov	r9,r5
   12df0:	208000cc 	andi	r2,r4,3
   12df4:	58003726 	beq	r11,zero,12ed4 <strchr+0xec>
   12df8:	10000b26 	beq	r2,zero,12e28 <strchr+0x40>
   12dfc:	20800003 	ldbu	r2,0(r4)
   12e00:	10003226 	beq	r2,zero,12ecc <strchr+0xe4>
   12e04:	28c03fcc 	andi	r3,r5,255
   12e08:	5880041e 	bne	r11,r2,12e1c <strchr+0x34>
   12e0c:	00004d06 	br	12f44 <strchr+0x15c>
   12e10:	20800003 	ldbu	r2,0(r4)
   12e14:	10002d26 	beq	r2,zero,12ecc <strchr+0xe4>
   12e18:	18804a26 	beq	r3,r2,12f44 <strchr+0x15c>
   12e1c:	21000044 	addi	r4,r4,1
   12e20:	208000cc 	andi	r2,r4,3
   12e24:	103ffa1e 	bne	r2,zero,12e10 <_gp+0xfffecd54>
   12e28:	29403fcc 	andi	r5,r5,255
   12e2c:	2814923a 	slli	r10,r5,8
   12e30:	20800017 	ldw	r2,0(r4)
   12e34:	01bfbff4 	movhi	r6,65279
   12e38:	2a8ab03a 	or	r5,r5,r10
   12e3c:	2814943a 	slli	r10,r5,16
   12e40:	31bfbfc4 	addi	r6,r6,-257
   12e44:	119b883a 	add	r13,r2,r6
   12e48:	5154b03a 	or	r10,r10,r5
   12e4c:	008e303a 	nor	r7,zero,r2
   12e50:	5084f03a 	xor	r2,r10,r2
   12e54:	1191883a 	add	r8,r2,r6
   12e58:	0086303a 	nor	r3,zero,r2
   12e5c:	03202074 	movhi	r12,32897
   12e60:	69ca703a 	and	r5,r13,r7
   12e64:	40c4703a 	and	r2,r8,r3
   12e68:	63202004 	addi	r12,r12,-32640
   12e6c:	2884b03a 	or	r2,r5,r2
   12e70:	1304703a 	and	r2,r2,r12
   12e74:	10000c1e 	bne	r2,zero,12ea8 <strchr+0xc0>
   12e78:	21000104 	addi	r4,r4,4
   12e7c:	20c00017 	ldw	r3,0(r4)
   12e80:	50c4f03a 	xor	r2,r10,r3
   12e84:	1991883a 	add	r8,r3,r6
   12e88:	00ca303a 	nor	r5,zero,r3
   12e8c:	118f883a 	add	r7,r2,r6
   12e90:	0086303a 	nor	r3,zero,r2
   12e94:	414a703a 	and	r5,r8,r5
   12e98:	38c4703a 	and	r2,r7,r3
   12e9c:	2884b03a 	or	r2,r5,r2
   12ea0:	1304703a 	and	r2,r2,r12
   12ea4:	103ff426 	beq	r2,zero,12e78 <_gp+0xfffecdbc>
   12ea8:	20800003 	ldbu	r2,0(r4)
   12eac:	10000726 	beq	r2,zero,12ecc <strchr+0xe4>
   12eb0:	58802426 	beq	r11,r2,12f44 <strchr+0x15c>
   12eb4:	48c03fcc 	andi	r3,r9,255
   12eb8:	00000106 	br	12ec0 <strchr+0xd8>
   12ebc:	18802126 	beq	r3,r2,12f44 <strchr+0x15c>
   12ec0:	21000044 	addi	r4,r4,1
   12ec4:	20800003 	ldbu	r2,0(r4)
   12ec8:	103ffc1e 	bne	r2,zero,12ebc <_gp+0xfffece00>
   12ecc:	0005883a 	mov	r2,zero
   12ed0:	f800283a 	ret
   12ed4:	10000526 	beq	r2,zero,12eec <strchr+0x104>
   12ed8:	20800003 	ldbu	r2,0(r4)
   12edc:	10001926 	beq	r2,zero,12f44 <strchr+0x15c>
   12ee0:	21000044 	addi	r4,r4,1
   12ee4:	208000cc 	andi	r2,r4,3
   12ee8:	103ffb1e 	bne	r2,zero,12ed8 <_gp+0xfffece1c>
   12eec:	20800017 	ldw	r2,0(r4)
   12ef0:	01bfbff4 	movhi	r6,65279
   12ef4:	31bfbfc4 	addi	r6,r6,-257
   12ef8:	0086303a 	nor	r3,zero,r2
   12efc:	01602074 	movhi	r5,32897
   12f00:	1185883a 	add	r2,r2,r6
   12f04:	29602004 	addi	r5,r5,-32640
   12f08:	10c4703a 	and	r2,r2,r3
   12f0c:	1144703a 	and	r2,r2,r5
   12f10:	1000071e 	bne	r2,zero,12f30 <strchr+0x148>
   12f14:	21000104 	addi	r4,r4,4
   12f18:	20800017 	ldw	r2,0(r4)
   12f1c:	1187883a 	add	r3,r2,r6
   12f20:	0084303a 	nor	r2,zero,r2
   12f24:	1884703a 	and	r2,r3,r2
   12f28:	1144703a 	and	r2,r2,r5
   12f2c:	103ff926 	beq	r2,zero,12f14 <_gp+0xfffece58>
   12f30:	20800003 	ldbu	r2,0(r4)
   12f34:	10000326 	beq	r2,zero,12f44 <strchr+0x15c>
   12f38:	21000044 	addi	r4,r4,1
   12f3c:	20800003 	ldbu	r2,0(r4)
   12f40:	103ffd1e 	bne	r2,zero,12f38 <_gp+0xfffece7c>
   12f44:	2005883a 	mov	r2,r4
   12f48:	f800283a 	ret

00012f4c <strcpy>:
   12f4c:	2906b03a 	or	r3,r5,r4
   12f50:	18c000cc 	andi	r3,r3,3
   12f54:	2005883a 	mov	r2,r4
   12f58:	1800161e 	bne	r3,zero,12fb4 <strcpy+0x68>
   12f5c:	29c00017 	ldw	r7,0(r5)
   12f60:	02ffbff4 	movhi	r11,65279
   12f64:	5affbfc4 	addi	r11,r11,-257
   12f68:	02a02074 	movhi	r10,32897
   12f6c:	01c6303a 	nor	r3,zero,r7
   12f70:	3ac9883a 	add	r4,r7,r11
   12f74:	52a02004 	addi	r10,r10,-32640
   12f78:	20c6703a 	and	r3,r4,r3
   12f7c:	1a86703a 	and	r3,r3,r10
   12f80:	18000c1e 	bne	r3,zero,12fb4 <strcpy+0x68>
   12f84:	1011883a 	mov	r8,r2
   12f88:	41c00015 	stw	r7,0(r8)
   12f8c:	29400104 	addi	r5,r5,4
   12f90:	29c00017 	ldw	r7,0(r5)
   12f94:	41800104 	addi	r6,r8,4
   12f98:	3011883a 	mov	r8,r6
   12f9c:	3ad3883a 	add	r9,r7,r11
   12fa0:	01c6303a 	nor	r3,zero,r7
   12fa4:	48c6703a 	and	r3,r9,r3
   12fa8:	1a86703a 	and	r3,r3,r10
   12fac:	183ff626 	beq	r3,zero,12f88 <_gp+0xfffececc>
   12fb0:	00000106 	br	12fb8 <strcpy+0x6c>
   12fb4:	100d883a 	mov	r6,r2
   12fb8:	28c00003 	ldbu	r3,0(r5)
   12fbc:	31800044 	addi	r6,r6,1
   12fc0:	29400044 	addi	r5,r5,1
   12fc4:	30ffffc5 	stb	r3,-1(r6)
   12fc8:	18c03fcc 	andi	r3,r3,255
   12fcc:	18c0201c 	xori	r3,r3,128
   12fd0:	18ffe004 	addi	r3,r3,-128
   12fd4:	183ff81e 	bne	r3,zero,12fb8 <_gp+0xfffecefc>
   12fd8:	f800283a 	ret

00012fdc <critical_factorization>:
   12fdc:	02c00044 	movi	r11,1
   12fe0:	5811883a 	mov	r8,r11
   12fe4:	0013883a 	mov	r9,zero
   12fe8:	00bfffc4 	movi	r2,-1
   12fec:	2087883a 	add	r3,r4,r2
   12ff0:	1a0f883a 	add	r7,r3,r8
   12ff4:	4a07883a 	add	r3,r9,r8
   12ff8:	20d5883a 	add	r10,r4,r3
   12ffc:	1940102e 	bgeu	r3,r5,13040 <critical_factorization+0x64>
   13000:	52800003 	ldbu	r10,0(r10)
   13004:	39c00003 	ldbu	r7,0(r7)
   13008:	51c0042e 	bgeu	r10,r7,1301c <critical_factorization+0x40>
   1300c:	1897c83a 	sub	r11,r3,r2
   13010:	1813883a 	mov	r9,r3
   13014:	02000044 	movi	r8,1
   13018:	003ff406 	br	12fec <_gp+0xfffecf30>
   1301c:	51c00526 	beq	r10,r7,13034 <critical_factorization+0x58>
   13020:	02c00044 	movi	r11,1
   13024:	4805883a 	mov	r2,r9
   13028:	5811883a 	mov	r8,r11
   1302c:	4ad3883a 	add	r9,r9,r11
   13030:	003fee06 	br	12fec <_gp+0xfffecf30>
   13034:	42c02226 	beq	r8,r11,130c0 <critical_factorization+0xe4>
   13038:	42000044 	addi	r8,r8,1
   1303c:	003feb06 	br	12fec <_gp+0xfffecf30>
   13040:	03000044 	movi	r12,1
   13044:	32c00015 	stw	r11,0(r6)
   13048:	6011883a 	mov	r8,r12
   1304c:	0013883a 	mov	r9,zero
   13050:	02ffffc4 	movi	r11,-1
   13054:	22c7883a 	add	r3,r4,r11
   13058:	1a0f883a 	add	r7,r3,r8
   1305c:	4a07883a 	add	r3,r9,r8
   13060:	20d5883a 	add	r10,r4,r3
   13064:	1940102e 	bgeu	r3,r5,130a8 <critical_factorization+0xcc>
   13068:	52800003 	ldbu	r10,0(r10)
   1306c:	39c00003 	ldbu	r7,0(r7)
   13070:	3a80042e 	bgeu	r7,r10,13084 <critical_factorization+0xa8>
   13074:	1ad9c83a 	sub	r12,r3,r11
   13078:	1813883a 	mov	r9,r3
   1307c:	02000044 	movi	r8,1
   13080:	003ff406 	br	13054 <_gp+0xfffecf98>
   13084:	51c00526 	beq	r10,r7,1309c <critical_factorization+0xc0>
   13088:	03000044 	movi	r12,1
   1308c:	4817883a 	mov	r11,r9
   13090:	6011883a 	mov	r8,r12
   13094:	4b13883a 	add	r9,r9,r12
   13098:	003fee06 	br	13054 <_gp+0xfffecf98>
   1309c:	43000c26 	beq	r8,r12,130d0 <critical_factorization+0xf4>
   130a0:	42000044 	addi	r8,r8,1
   130a4:	003feb06 	br	13054 <_gp+0xfffecf98>
   130a8:	5ac00044 	addi	r11,r11,1
   130ac:	10800044 	addi	r2,r2,1
   130b0:	58800236 	bltu	r11,r2,130bc <critical_factorization+0xe0>
   130b4:	33000015 	stw	r12,0(r6)
   130b8:	5805883a 	mov	r2,r11
   130bc:	f800283a 	ret
   130c0:	4017883a 	mov	r11,r8
   130c4:	1813883a 	mov	r9,r3
   130c8:	02000044 	movi	r8,1
   130cc:	003fc706 	br	12fec <_gp+0xfffecf30>
   130d0:	4019883a 	mov	r12,r8
   130d4:	1813883a 	mov	r9,r3
   130d8:	02000044 	movi	r8,1
   130dc:	003fdd06 	br	13054 <_gp+0xfffecf98>

000130e0 <two_way_long_needle>:
   130e0:	defef104 	addi	sp,sp,-1084
   130e4:	dc810715 	stw	r18,1052(sp)
   130e8:	dc410615 	stw	r17,1048(sp)
   130ec:	dc810004 	addi	r18,sp,1024
   130f0:	3023883a 	mov	r17,r6
   130f4:	2807883a 	mov	r3,r5
   130f8:	ddc10c15 	stw	r23,1072(sp)
   130fc:	900d883a 	mov	r6,r18
   13100:	202f883a 	mov	r23,r4
   13104:	380b883a 	mov	r5,r7
   13108:	8809883a 	mov	r4,r17
   1310c:	dd810b15 	stw	r22,1068(sp)
   13110:	dc010515 	stw	r16,1044(sp)
   13114:	d8c10415 	stw	r3,1040(sp)
   13118:	dfc10e15 	stw	ra,1080(sp)
   1311c:	df010d15 	stw	fp,1076(sp)
   13120:	dd410a15 	stw	r21,1064(sp)
   13124:	dd010915 	stw	r20,1060(sp)
   13128:	dcc10815 	stw	r19,1056(sp)
   1312c:	382d883a 	mov	r22,r7
   13130:	0012fdc0 	call	12fdc <critical_factorization>
   13134:	d8c10417 	ldw	r3,1040(sp)
   13138:	1021883a 	mov	r16,r2
   1313c:	d805883a 	mov	r2,sp
   13140:	15800015 	stw	r22,0(r2)
   13144:	10800104 	addi	r2,r2,4
   13148:	90bffd1e 	bne	r18,r2,13140 <_gp+0xfffed084>
   1314c:	b0000b26 	beq	r22,zero,1317c <two_way_long_needle+0x9c>
   13150:	b17fffc4 	addi	r5,r22,-1
   13154:	8809883a 	mov	r4,r17
   13158:	8d8d883a 	add	r6,r17,r22
   1315c:	20800003 	ldbu	r2,0(r4)
   13160:	21000044 	addi	r4,r4,1
   13164:	1085883a 	add	r2,r2,r2
   13168:	1085883a 	add	r2,r2,r2
   1316c:	d885883a 	add	r2,sp,r2
   13170:	11400015 	stw	r5,0(r2)
   13174:	297fffc4 	addi	r5,r5,-1
   13178:	21bff81e 	bne	r4,r6,1315c <_gp+0xfffed0a0>
   1317c:	d9410017 	ldw	r5,1024(sp)
   13180:	800d883a 	mov	r6,r16
   13184:	8809883a 	mov	r4,r17
   13188:	894b883a 	add	r5,r17,r5
   1318c:	d8c10415 	stw	r3,1040(sp)
   13190:	00179a00 	call	179a0 <memcmp>
   13194:	d8c10417 	ldw	r3,1040(sp)
   13198:	10006a1e 	bne	r2,zero,13344 <two_way_long_needle+0x264>
   1319c:	84bfffc4 	addi	r18,r16,-1
   131a0:	8c85883a 	add	r2,r17,r18
   131a4:	d8810215 	stw	r2,1032(sp)
   131a8:	00800044 	movi	r2,1
   131ac:	813fff84 	addi	r4,r16,-2
   131b0:	1405c83a 	sub	r2,r2,r16
   131b4:	0029883a 	mov	r20,zero
   131b8:	0039883a 	mov	fp,zero
   131bc:	b57fffc4 	addi	r21,r22,-1
   131c0:	d9010115 	stw	r4,1028(sp)
   131c4:	d8810315 	stw	r2,1036(sp)
   131c8:	00000706 	br	131e8 <two_way_long_needle+0x108>
   131cc:	a0000326 	beq	r20,zero,131dc <two_way_long_needle+0xfc>
   131d0:	d8c10017 	ldw	r3,1024(sp)
   131d4:	10c0012e 	bgeu	r2,r3,131dc <two_way_long_needle+0xfc>
   131d8:	b0c5c83a 	sub	r2,r22,r3
   131dc:	e0b9883a 	add	fp,fp,r2
   131e0:	0029883a 	mov	r20,zero
   131e4:	9807883a 	mov	r3,r19
   131e8:	e5a7883a 	add	r19,fp,r22
   131ec:	98cdc83a 	sub	r6,r19,r3
   131f0:	000b883a 	mov	r5,zero
   131f4:	b8c9883a 	add	r4,r23,r3
   131f8:	00178bc0 	call	178bc <memchr>
   131fc:	1000441e 	bne	r2,zero,13310 <two_way_long_needle+0x230>
   13200:	98004326 	beq	r19,zero,13310 <two_way_long_needle+0x230>
   13204:	bcc5883a 	add	r2,r23,r19
   13208:	10bfffc3 	ldbu	r2,-1(r2)
   1320c:	1085883a 	add	r2,r2,r2
   13210:	1085883a 	add	r2,r2,r2
   13214:	d885883a 	add	r2,sp,r2
   13218:	10800017 	ldw	r2,0(r2)
   1321c:	103feb1e 	bne	r2,zero,131cc <_gp+0xfffed110>
   13220:	a015883a 	mov	r10,r20
   13224:	a400012e 	bgeu	r20,r16,1322c <two_way_long_needle+0x14c>
   13228:	8015883a 	mov	r10,r16
   1322c:	5540152e 	bgeu	r10,r21,13284 <two_way_long_needle+0x1a4>
   13230:	bf05883a 	add	r2,r23,fp
   13234:	8a87883a 	add	r3,r17,r10
   13238:	1285883a 	add	r2,r2,r10
   1323c:	18c00003 	ldbu	r3,0(r3)
   13240:	10800003 	ldbu	r2,0(r2)
   13244:	18802d1e 	bne	r3,r2,132fc <two_way_long_needle+0x21c>
   13248:	e1400044 	addi	r5,fp,1
   1324c:	50800044 	addi	r2,r10,1
   13250:	2a8b883a 	add	r5,r5,r10
   13254:	888d883a 	add	r6,r17,r2
   13258:	b94b883a 	add	r5,r23,r5
   1325c:	00000706 	br	1327c <two_way_long_needle+0x19c>
   13260:	31000003 	ldbu	r4,0(r6)
   13264:	28c00003 	ldbu	r3,0(r5)
   13268:	31800044 	addi	r6,r6,1
   1326c:	21003fcc 	andi	r4,r4,255
   13270:	29400044 	addi	r5,r5,1
   13274:	20c0211e 	bne	r4,r3,132fc <two_way_long_needle+0x21c>
   13278:	10800044 	addi	r2,r2,1
   1327c:	1015883a 	mov	r10,r2
   13280:	157ff736 	bltu	r2,r21,13260 <_gp+0xfffed1a4>
   13284:	900d883a 	mov	r6,r18
   13288:	a4007d2e 	bgeu	r20,r16,13480 <two_way_long_needle+0x3a0>
   1328c:	d9410217 	ldw	r5,1032(sp)
   13290:	bf05883a 	add	r2,r23,fp
   13294:	1485883a 	add	r2,r2,r18
   13298:	28c00003 	ldbu	r3,0(r5)
   1329c:	10800003 	ldbu	r2,0(r2)
   132a0:	1880771e 	bne	r3,r2,13480 <two_way_long_needle+0x3a0>
   132a4:	d8c10117 	ldw	r3,1028(sp)
   132a8:	a2ffffc4 	addi	r11,r20,-1
   132ac:	8ad7883a 	add	r11,r17,r11
   132b0:	e0cb883a 	add	r5,fp,r3
   132b4:	88c5883a 	add	r2,r17,r3
   132b8:	b94b883a 	add	r5,r23,r5
   132bc:	00000706 	br	132dc <two_way_long_needle+0x1fc>
   132c0:	11000003 	ldbu	r4,0(r2)
   132c4:	28c00003 	ldbu	r3,0(r5)
   132c8:	10bfffc4 	addi	r2,r2,-1
   132cc:	21003fcc 	andi	r4,r4,255
   132d0:	297fffc4 	addi	r5,r5,-1
   132d4:	20c0031e 	bne	r4,r3,132e4 <two_way_long_needle+0x204>
   132d8:	500d883a 	mov	r6,r10
   132dc:	32bfffc4 	addi	r10,r6,-1
   132e0:	58bff71e 	bne	r11,r2,132c0 <_gp+0xfffed204>
   132e4:	a2400044 	addi	r9,r20,1
   132e8:	32406736 	bltu	r6,r9,13488 <two_way_long_needle+0x3a8>
   132ec:	da410017 	ldw	r9,1024(sp)
   132f0:	e279883a 	add	fp,fp,r9
   132f4:	b269c83a 	sub	r20,r22,r9
   132f8:	003fba06 	br	131e4 <_gp+0xfffed128>
   132fc:	d8c10317 	ldw	r3,1036(sp)
   13300:	0029883a 	mov	r20,zero
   13304:	1f39883a 	add	fp,r3,fp
   13308:	e2b9883a 	add	fp,fp,r10
   1330c:	003fb506 	br	131e4 <_gp+0xfffed128>
   13310:	0005883a 	mov	r2,zero
   13314:	dfc10e17 	ldw	ra,1080(sp)
   13318:	df010d17 	ldw	fp,1076(sp)
   1331c:	ddc10c17 	ldw	r23,1072(sp)
   13320:	dd810b17 	ldw	r22,1068(sp)
   13324:	dd410a17 	ldw	r21,1064(sp)
   13328:	dd010917 	ldw	r20,1060(sp)
   1332c:	dcc10817 	ldw	r19,1056(sp)
   13330:	dc810717 	ldw	r18,1052(sp)
   13334:	dc410617 	ldw	r17,1048(sp)
   13338:	dc010517 	ldw	r16,1044(sp)
   1333c:	dec10f04 	addi	sp,sp,1084
   13340:	f800283a 	ret
   13344:	b405c83a 	sub	r2,r22,r16
   13348:	14004b36 	bltu	r2,r16,13478 <two_way_long_needle+0x398>
   1334c:	10800044 	addi	r2,r2,1
   13350:	84bfffc4 	addi	r18,r16,-1
   13354:	d8810015 	stw	r2,1024(sp)
   13358:	00800044 	movi	r2,1
   1335c:	8c89883a 	add	r4,r17,r18
   13360:	817fff84 	addi	r5,r16,-2
   13364:	1405c83a 	sub	r2,r2,r16
   13368:	0029883a 	mov	r20,zero
   1336c:	b73fffc4 	addi	fp,r22,-1
   13370:	d9010215 	stw	r4,1032(sp)
   13374:	d9410115 	stw	r5,1028(sp)
   13378:	8d7fffc4 	addi	r21,r17,-1
   1337c:	d8810315 	stw	r2,1036(sp)
   13380:	a5a7883a 	add	r19,r20,r22
   13384:	98cdc83a 	sub	r6,r19,r3
   13388:	000b883a 	mov	r5,zero
   1338c:	b8c9883a 	add	r4,r23,r3
   13390:	00178bc0 	call	178bc <memchr>
   13394:	103fde1e 	bne	r2,zero,13310 <_gp+0xfffed254>
   13398:	983fdd26 	beq	r19,zero,13310 <_gp+0xfffed254>
   1339c:	bcc5883a 	add	r2,r23,r19
   133a0:	10bfffc3 	ldbu	r2,-1(r2)
   133a4:	1085883a 	add	r2,r2,r2
   133a8:	1085883a 	add	r2,r2,r2
   133ac:	d885883a 	add	r2,sp,r2
   133b0:	10800017 	ldw	r2,0(r2)
   133b4:	1000291e 	bne	r2,zero,1345c <two_way_long_needle+0x37c>
   133b8:	bd05883a 	add	r2,r23,r20
   133bc:	8700142e 	bgeu	r16,fp,13410 <two_way_long_needle+0x330>
   133c0:	8c07883a 	add	r3,r17,r16
   133c4:	140b883a 	add	r5,r2,r16
   133c8:	19000003 	ldbu	r4,0(r3)
   133cc:	28c00003 	ldbu	r3,0(r5)
   133d0:	800d883a 	mov	r6,r16
   133d4:	20c0241e 	bne	r4,r3,13468 <two_way_long_needle+0x388>
   133d8:	81400044 	addi	r5,r16,1
   133dc:	a155883a 	add	r10,r20,r5
   133e0:	ba95883a 	add	r10,r23,r10
   133e4:	894b883a 	add	r5,r17,r5
   133e8:	800d883a 	mov	r6,r16
   133ec:	00000606 	br	13408 <two_way_long_needle+0x328>
   133f0:	29000003 	ldbu	r4,0(r5)
   133f4:	50c00003 	ldbu	r3,0(r10)
   133f8:	29400044 	addi	r5,r5,1
   133fc:	21003fcc 	andi	r4,r4,255
   13400:	52800044 	addi	r10,r10,1
   13404:	20c0181e 	bne	r4,r3,13468 <two_way_long_needle+0x388>
   13408:	31800044 	addi	r6,r6,1
   1340c:	373ff836 	bltu	r6,fp,133f0 <_gp+0xfffed334>
   13410:	00ffffc4 	movi	r3,-1
   13414:	90ffbf26 	beq	r18,r3,13314 <_gp+0xfffed258>
   13418:	d9410217 	ldw	r5,1032(sp)
   1341c:	1487883a 	add	r3,r2,r18
   13420:	18c00003 	ldbu	r3,0(r3)
   13424:	29000003 	ldbu	r4,0(r5)
   13428:	20c00b1e 	bne	r4,r3,13458 <two_way_long_needle+0x378>
   1342c:	d8c10117 	ldw	r3,1028(sp)
   13430:	a0cd883a 	add	r6,r20,r3
   13434:	b98d883a 	add	r6,r23,r6
   13438:	88c7883a 	add	r3,r17,r3
   1343c:	1d7fb526 	beq	r3,r21,13314 <_gp+0xfffed258>
   13440:	19400003 	ldbu	r5,0(r3)
   13444:	31000003 	ldbu	r4,0(r6)
   13448:	18ffffc4 	addi	r3,r3,-1
   1344c:	29403fcc 	andi	r5,r5,255
   13450:	31bfffc4 	addi	r6,r6,-1
   13454:	293ff926 	beq	r5,r4,1343c <_gp+0xfffed380>
   13458:	d8810017 	ldw	r2,1024(sp)
   1345c:	a0a9883a 	add	r20,r20,r2
   13460:	9807883a 	mov	r3,r19
   13464:	003fc606 	br	13380 <_gp+0xfffed2c4>
   13468:	d8c10317 	ldw	r3,1036(sp)
   1346c:	1d11883a 	add	r8,r3,r20
   13470:	41a9883a 	add	r20,r8,r6
   13474:	003ffa06 	br	13460 <_gp+0xfffed3a4>
   13478:	8005883a 	mov	r2,r16
   1347c:	003fb306 	br	1334c <_gp+0xfffed290>
   13480:	800d883a 	mov	r6,r16
   13484:	003f9706 	br	132e4 <_gp+0xfffed228>
   13488:	bf05883a 	add	r2,r23,fp
   1348c:	003fa106 	br	13314 <_gp+0xfffed258>

00013490 <strstr>:
   13490:	21800007 	ldb	r6,0(r4)
   13494:	30009226 	beq	r6,zero,136e0 <strstr+0x250>
   13498:	28c00007 	ldb	r3,0(r5)
   1349c:	18000f26 	beq	r3,zero,134dc <strstr+0x4c>
   134a0:	280f883a 	mov	r7,r5
   134a4:	2011883a 	mov	r8,r4
   134a8:	02400044 	movi	r9,1
   134ac:	00000206 	br	134b8 <strstr+0x28>
   134b0:	38c00007 	ldb	r3,0(r7)
   134b4:	18000826 	beq	r3,zero,134d8 <strstr+0x48>
   134b8:	42000044 	addi	r8,r8,1
   134bc:	1987003a 	cmpeq	r3,r3,r6
   134c0:	41800007 	ldb	r6,0(r8)
   134c4:	39c00044 	addi	r7,r7,1
   134c8:	48d2703a 	and	r9,r9,r3
   134cc:	303ff81e 	bne	r6,zero,134b0 <_gp+0xfffed3f4>
   134d0:	38800007 	ldb	r2,0(r7)
   134d4:	1000841e 	bne	r2,zero,136e8 <strstr+0x258>
   134d8:	48000226 	beq	r9,zero,134e4 <strstr+0x54>
   134dc:	2005883a 	mov	r2,r4
   134e0:	f800283a 	ret
   134e4:	defff104 	addi	sp,sp,-60
   134e8:	ddc00c15 	stw	r23,48(sp)
   134ec:	dd800b15 	stw	r22,44(sp)
   134f0:	dd400a15 	stw	r21,40(sp)
   134f4:	dc000515 	stw	r16,20(sp)
   134f8:	dfc00e15 	stw	ra,56(sp)
   134fc:	df000d15 	stw	fp,52(sp)
   13500:	dd000915 	stw	r20,36(sp)
   13504:	dcc00815 	stw	r19,32(sp)
   13508:	dc800715 	stw	r18,28(sp)
   1350c:	dc400615 	stw	r17,24(sp)
   13510:	282d883a 	mov	r22,r5
   13514:	29400007 	ldb	r5,0(r5)
   13518:	202b883a 	mov	r21,r4
   1351c:	21000044 	addi	r4,r4,1
   13520:	3da1c83a 	sub	r16,r7,r22
   13524:	0012de80 	call	12de8 <strchr>
   13528:	102f883a 	mov	r23,r2
   1352c:	10007526 	beq	r2,zero,13704 <strstr+0x274>
   13530:	00c00044 	movi	r3,1
   13534:	80c00a26 	beq	r16,r3,13560 <strstr+0xd0>
   13538:	ac09883a 	add	r4,r21,r16
   1353c:	20800136 	bltu	r4,r2,13544 <strstr+0xb4>
   13540:	2087c83a 	sub	r3,r4,r2
   13544:	008007c4 	movi	r2,31
   13548:	1400112e 	bgeu	r2,r16,13590 <strstr+0x100>
   1354c:	800f883a 	mov	r7,r16
   13550:	b00d883a 	mov	r6,r22
   13554:	180b883a 	mov	r5,r3
   13558:	b809883a 	mov	r4,r23
   1355c:	00130e00 	call	130e0 <two_way_long_needle>
   13560:	dfc00e17 	ldw	ra,56(sp)
   13564:	df000d17 	ldw	fp,52(sp)
   13568:	ddc00c17 	ldw	r23,48(sp)
   1356c:	dd800b17 	ldw	r22,44(sp)
   13570:	dd400a17 	ldw	r21,40(sp)
   13574:	dd000917 	ldw	r20,36(sp)
   13578:	dcc00817 	ldw	r19,32(sp)
   1357c:	dc800717 	ldw	r18,28(sp)
   13580:	dc400617 	ldw	r17,24(sp)
   13584:	dc000517 	ldw	r16,20(sp)
   13588:	dec00f04 	addi	sp,sp,60
   1358c:	f800283a 	ret
   13590:	d80d883a 	mov	r6,sp
   13594:	800b883a 	mov	r5,r16
   13598:	b009883a 	mov	r4,r22
   1359c:	d8c00415 	stw	r3,16(sp)
   135a0:	0012fdc0 	call	12fdc <critical_factorization>
   135a4:	d9400017 	ldw	r5,0(sp)
   135a8:	100d883a 	mov	r6,r2
   135ac:	b009883a 	mov	r4,r22
   135b0:	b14b883a 	add	r5,r22,r5
   135b4:	1039883a 	mov	fp,r2
   135b8:	00179a00 	call	179a0 <memcmp>
   135bc:	d8c00417 	ldw	r3,16(sp)
   135c0:	1000521e 	bne	r2,zero,1370c <strstr+0x27c>
   135c4:	e47fffc4 	addi	r17,fp,-1
   135c8:	04c00044 	movi	r19,1
   135cc:	b445883a 	add	r2,r22,r17
   135d0:	9f27c83a 	sub	r19,r19,fp
   135d4:	0029883a 	mov	r20,zero
   135d8:	002b883a 	mov	r21,zero
   135dc:	d8800215 	stw	r2,8(sp)
   135e0:	e4bfff84 	addi	r18,fp,-2
   135e4:	dcc00115 	stw	r19,4(sp)
   135e8:	8567883a 	add	r19,r16,r21
   135ec:	98cdc83a 	sub	r6,r19,r3
   135f0:	000b883a 	mov	r5,zero
   135f4:	b8c9883a 	add	r4,r23,r3
   135f8:	00178bc0 	call	178bc <memchr>
   135fc:	1000411e 	bne	r2,zero,13704 <strstr+0x274>
   13600:	98004026 	beq	r19,zero,13704 <strstr+0x274>
   13604:	e00b883a 	mov	r5,fp
   13608:	e500012e 	bgeu	fp,r20,13610 <strstr+0x180>
   1360c:	a00b883a 	mov	r5,r20
   13610:	2c00152e 	bgeu	r5,r16,13668 <strstr+0x1d8>
   13614:	b947883a 	add	r3,r23,r5
   13618:	1d47883a 	add	r3,r3,r21
   1361c:	b145883a 	add	r2,r22,r5
   13620:	18c00003 	ldbu	r3,0(r3)
   13624:	10800003 	ldbu	r2,0(r2)
   13628:	1880311e 	bne	r3,r2,136f0 <strstr+0x260>
   1362c:	a8800044 	addi	r2,r21,1
   13630:	28c00044 	addi	r3,r5,1
   13634:	1145883a 	add	r2,r2,r5
   13638:	b0c9883a 	add	r4,r22,r3
   1363c:	b885883a 	add	r2,r23,r2
   13640:	00000706 	br	13660 <strstr+0x1d0>
   13644:	21c00003 	ldbu	r7,0(r4)
   13648:	11800003 	ldbu	r6,0(r2)
   1364c:	21000044 	addi	r4,r4,1
   13650:	39c03fcc 	andi	r7,r7,255
   13654:	10800044 	addi	r2,r2,1
   13658:	3980251e 	bne	r7,r6,136f0 <strstr+0x260>
   1365c:	18c00044 	addi	r3,r3,1
   13660:	180b883a 	mov	r5,r3
   13664:	1c3ff736 	bltu	r3,r16,13644 <_gp+0xfffed588>
   13668:	880d883a 	mov	r6,r17
   1366c:	a700702e 	bgeu	r20,fp,13830 <strstr+0x3a0>
   13670:	d9000217 	ldw	r4,8(sp)
   13674:	bd45883a 	add	r2,r23,r21
   13678:	1445883a 	add	r2,r2,r17
   1367c:	20c00003 	ldbu	r3,0(r4)
   13680:	10800003 	ldbu	r2,0(r2)
   13684:	18806a1e 	bne	r3,r2,13830 <strstr+0x3a0>
   13688:	954b883a 	add	r5,r18,r21
   1368c:	a2bfffc4 	addi	r10,r20,-1
   13690:	b485883a 	add	r2,r22,r18
   13694:	b94b883a 	add	r5,r23,r5
   13698:	b295883a 	add	r10,r22,r10
   1369c:	00000706 	br	136bc <strstr+0x22c>
   136a0:	11000003 	ldbu	r4,0(r2)
   136a4:	28c00003 	ldbu	r3,0(r5)
   136a8:	10bfffc4 	addi	r2,r2,-1
   136ac:	21003fcc 	andi	r4,r4,255
   136b0:	297fffc4 	addi	r5,r5,-1
   136b4:	20c0031e 	bne	r4,r3,136c4 <strstr+0x234>
   136b8:	380d883a 	mov	r6,r7
   136bc:	31ffffc4 	addi	r7,r6,-1
   136c0:	12bff71e 	bne	r2,r10,136a0 <_gp+0xfffed5e4>
   136c4:	a2000044 	addi	r8,r20,1
   136c8:	32005b36 	bltu	r6,r8,13838 <strstr+0x3a8>
   136cc:	da000017 	ldw	r8,0(sp)
   136d0:	aa2b883a 	add	r21,r21,r8
   136d4:	8229c83a 	sub	r20,r16,r8
   136d8:	9807883a 	mov	r3,r19
   136dc:	003fc206 	br	135e8 <_gp+0xfffed52c>
   136e0:	28800007 	ldb	r2,0(r5)
   136e4:	103f7d26 	beq	r2,zero,134dc <_gp+0xfffed420>
   136e8:	0005883a 	mov	r2,zero
   136ec:	f800283a 	ret
   136f0:	d8c00117 	ldw	r3,4(sp)
   136f4:	0029883a 	mov	r20,zero
   136f8:	1d6b883a 	add	r21,r3,r21
   136fc:	a96b883a 	add	r21,r21,r5
   13700:	003ff506 	br	136d8 <_gp+0xfffed61c>
   13704:	0005883a 	mov	r2,zero
   13708:	003f9506 	br	13560 <_gp+0xfffed4a4>
   1370c:	8705c83a 	sub	r2,r16,fp
   13710:	1700012e 	bgeu	r2,fp,13718 <strstr+0x288>
   13714:	e005883a 	mov	r2,fp
   13718:	10800044 	addi	r2,r2,1
   1371c:	e4bfffc4 	addi	r18,fp,-1
   13720:	05000044 	movi	r20,1
   13724:	a729c83a 	sub	r20,r20,fp
   13728:	d8800015 	stw	r2,0(sp)
   1372c:	b48b883a 	add	r5,r22,r18
   13730:	e0bfff84 	addi	r2,fp,-2
   13734:	dd000215 	stw	r20,8(sp)
   13738:	002b883a 	mov	r21,zero
   1373c:	e4400044 	addi	r17,fp,1
   13740:	d9400315 	stw	r5,12(sp)
   13744:	d8800115 	stw	r2,4(sp)
   13748:	b53fffc4 	addi	r20,r22,-1
   1374c:	8567883a 	add	r19,r16,r21
   13750:	98cdc83a 	sub	r6,r19,r3
   13754:	000b883a 	mov	r5,zero
   13758:	b8c9883a 	add	r4,r23,r3
   1375c:	00178bc0 	call	178bc <memchr>
   13760:	103fe81e 	bne	r2,zero,13704 <_gp+0xfffed648>
   13764:	983fe726 	beq	r19,zero,13704 <_gp+0xfffed648>
   13768:	e400132e 	bgeu	fp,r16,137b8 <strstr+0x328>
   1376c:	bf07883a 	add	r3,r23,fp
   13770:	1d47883a 	add	r3,r3,r21
   13774:	b705883a 	add	r2,r22,fp
   13778:	18c00003 	ldbu	r3,0(r3)
   1377c:	10800003 	ldbu	r2,0(r2)
   13780:	1880241e 	bne	r3,r2,13814 <strstr+0x384>
   13784:	ac45883a 	add	r2,r21,r17
   13788:	b44b883a 	add	r5,r22,r17
   1378c:	b885883a 	add	r2,r23,r2
   13790:	e009883a 	mov	r4,fp
   13794:	00000606 	br	137b0 <strstr+0x320>
   13798:	29800003 	ldbu	r6,0(r5)
   1379c:	10c00003 	ldbu	r3,0(r2)
   137a0:	29400044 	addi	r5,r5,1
   137a4:	31803fcc 	andi	r6,r6,255
   137a8:	10800044 	addi	r2,r2,1
   137ac:	30c01a1e 	bne	r6,r3,13818 <strstr+0x388>
   137b0:	21000044 	addi	r4,r4,1
   137b4:	243ff836 	bltu	r4,r16,13798 <_gp+0xfffed6dc>
   137b8:	00bfffc4 	movi	r2,-1
   137bc:	bd49883a 	add	r4,r23,r21
   137c0:	90801926 	beq	r18,r2,13828 <strstr+0x398>
   137c4:	d9400317 	ldw	r5,12(sp)
   137c8:	2485883a 	add	r2,r4,r18
   137cc:	10800003 	ldbu	r2,0(r2)
   137d0:	28c00003 	ldbu	r3,0(r5)
   137d4:	18800b1e 	bne	r3,r2,13804 <strstr+0x374>
   137d8:	d8c00117 	ldw	r3,4(sp)
   137dc:	a8c5883a 	add	r2,r21,r3
   137e0:	b885883a 	add	r2,r23,r2
   137e4:	b0c7883a 	add	r3,r22,r3
   137e8:	1d000f26 	beq	r3,r20,13828 <strstr+0x398>
   137ec:	19800003 	ldbu	r6,0(r3)
   137f0:	11400003 	ldbu	r5,0(r2)
   137f4:	18ffffc4 	addi	r3,r3,-1
   137f8:	31803fcc 	andi	r6,r6,255
   137fc:	10bfffc4 	addi	r2,r2,-1
   13800:	317ff926 	beq	r6,r5,137e8 <_gp+0xfffed72c>
   13804:	d8800017 	ldw	r2,0(sp)
   13808:	a8ab883a 	add	r21,r21,r2
   1380c:	9807883a 	mov	r3,r19
   13810:	003fce06 	br	1374c <_gp+0xfffed690>
   13814:	e009883a 	mov	r4,fp
   13818:	d8c00217 	ldw	r3,8(sp)
   1381c:	1d4f883a 	add	r7,r3,r21
   13820:	392b883a 	add	r21,r7,r4
   13824:	003ff906 	br	1380c <_gp+0xfffed750>
   13828:	2005883a 	mov	r2,r4
   1382c:	003f4c06 	br	13560 <_gp+0xfffed4a4>
   13830:	e00d883a 	mov	r6,fp
   13834:	003fa306 	br	136c4 <_gp+0xfffed608>
   13838:	bd45883a 	add	r2,r23,r21
   1383c:	003f4806 	br	13560 <_gp+0xfffed4a4>

00013840 <___svfprintf_internal_r>:
   13840:	deffb704 	addi	sp,sp,-292
   13844:	dfc04815 	stw	ra,288(sp)
   13848:	ddc04615 	stw	r23,280(sp)
   1384c:	d9402d15 	stw	r5,180(sp)
   13850:	d9003915 	stw	r4,228(sp)
   13854:	302f883a 	mov	r23,r6
   13858:	d9c02e15 	stw	r7,184(sp)
   1385c:	df004715 	stw	fp,284(sp)
   13860:	dd804515 	stw	r22,276(sp)
   13864:	dd404415 	stw	r21,272(sp)
   13868:	dd004315 	stw	r20,268(sp)
   1386c:	dcc04215 	stw	r19,264(sp)
   13870:	dc804115 	stw	r18,260(sp)
   13874:	dc404015 	stw	r17,256(sp)
   13878:	dc003f15 	stw	r16,252(sp)
   1387c:	001788c0 	call	1788c <_localeconv_r>
   13880:	10800017 	ldw	r2,0(r2)
   13884:	1009883a 	mov	r4,r2
   13888:	d8803415 	stw	r2,208(sp)
   1388c:	0018d6c0 	call	18d6c <strlen>
   13890:	d8c02d17 	ldw	r3,180(sp)
   13894:	d8803815 	stw	r2,224(sp)
   13898:	1880030b 	ldhu	r2,12(r3)
   1389c:	1080200c 	andi	r2,r2,128
   138a0:	10000226 	beq	r2,zero,138ac <___svfprintf_internal_r+0x6c>
   138a4:	18800417 	ldw	r2,16(r3)
   138a8:	1006b126 	beq	r2,zero,15370 <___svfprintf_internal_r+0x1b30>
   138ac:	dcc03917 	ldw	r19,228(sp)
   138b0:	d8c00404 	addi	r3,sp,16
   138b4:	054000b4 	movhi	r21,2
   138b8:	d9001e04 	addi	r4,sp,120
   138bc:	ad758184 	addi	r21,r21,-10746
   138c0:	d8c01e15 	stw	r3,120(sp)
   138c4:	d8002015 	stw	zero,128(sp)
   138c8:	d8001f15 	stw	zero,124(sp)
   138cc:	d8003315 	stw	zero,204(sp)
   138d0:	d8003615 	stw	zero,216(sp)
   138d4:	d8003715 	stw	zero,220(sp)
   138d8:	1811883a 	mov	r8,r3
   138dc:	d8003a15 	stw	zero,232(sp)
   138e0:	d8003b15 	stw	zero,236(sp)
   138e4:	d8002f15 	stw	zero,188(sp)
   138e8:	d9002815 	stw	r4,160(sp)
   138ec:	b8800007 	ldb	r2,0(r23)
   138f0:	10027726 	beq	r2,zero,142d0 <___svfprintf_internal_r+0xa90>
   138f4:	00c00944 	movi	r3,37
   138f8:	b823883a 	mov	r17,r23
   138fc:	10c0021e 	bne	r2,r3,13908 <___svfprintf_internal_r+0xc8>
   13900:	00001406 	br	13954 <___svfprintf_internal_r+0x114>
   13904:	10c00326 	beq	r2,r3,13914 <___svfprintf_internal_r+0xd4>
   13908:	8c400044 	addi	r17,r17,1
   1390c:	88800007 	ldb	r2,0(r17)
   13910:	103ffc1e 	bne	r2,zero,13904 <_gp+0xfffed848>
   13914:	8de1c83a 	sub	r16,r17,r23
   13918:	80000e26 	beq	r16,zero,13954 <___svfprintf_internal_r+0x114>
   1391c:	d8c02017 	ldw	r3,128(sp)
   13920:	d8801f17 	ldw	r2,124(sp)
   13924:	45c00015 	stw	r23,0(r8)
   13928:	1c07883a 	add	r3,r3,r16
   1392c:	10800044 	addi	r2,r2,1
   13930:	d8c02015 	stw	r3,128(sp)
   13934:	44000115 	stw	r16,4(r8)
   13938:	d8801f15 	stw	r2,124(sp)
   1393c:	00c001c4 	movi	r3,7
   13940:	18809916 	blt	r3,r2,13ba8 <___svfprintf_internal_r+0x368>
   13944:	42000204 	addi	r8,r8,8
   13948:	d9402f17 	ldw	r5,188(sp)
   1394c:	2c0b883a 	add	r5,r5,r16
   13950:	d9402f15 	stw	r5,188(sp)
   13954:	88800007 	ldb	r2,0(r17)
   13958:	10009a26 	beq	r2,zero,13bc4 <___svfprintf_internal_r+0x384>
   1395c:	8dc00044 	addi	r23,r17,1
   13960:	8c400047 	ldb	r17,1(r17)
   13964:	0021883a 	mov	r16,zero
   13968:	00bfffc4 	movi	r2,-1
   1396c:	0025883a 	mov	r18,zero
   13970:	dc002905 	stb	r16,164(sp)
   13974:	d8002785 	stb	zero,158(sp)
   13978:	d8002b05 	stb	zero,172(sp)
   1397c:	d8802a15 	stw	r2,168(sp)
   13980:	d8003115 	stw	zero,196(sp)
   13984:	05001604 	movi	r20,88
   13988:	05800244 	movi	r22,9
   1398c:	4039883a 	mov	fp,r8
   13990:	9021883a 	mov	r16,r18
   13994:	bdc00044 	addi	r23,r23,1
   13998:	88bff804 	addi	r2,r17,-32
   1399c:	a0831e36 	bltu	r20,r2,14618 <___svfprintf_internal_r+0xdd8>
   139a0:	100490ba 	slli	r2,r2,2
   139a4:	00c00074 	movhi	r3,1
   139a8:	18ce6e04 	addi	r3,r3,14776
   139ac:	10c5883a 	add	r2,r2,r3
   139b0:	10800017 	ldw	r2,0(r2)
   139b4:	1000683a 	jmp	r2
   139b8:	00014560 	cmpeqi	zero,zero,1301
   139bc:	00014618 	cmpnei	zero,zero,1304
   139c0:	00014618 	cmpnei	zero,zero,1304
   139c4:	00014554 	movui	zero,1301
   139c8:	00014618 	cmpnei	zero,zero,1304
   139cc:	00014618 	cmpnei	zero,zero,1304
   139d0:	00014618 	cmpnei	zero,zero,1304
   139d4:	00014618 	cmpnei	zero,zero,1304
   139d8:	00014618 	cmpnei	zero,zero,1304
   139dc:	00014618 	cmpnei	zero,zero,1304
   139e0:	00013c20 	cmpeqi	zero,zero,1264
   139e4:	00014464 	muli	zero,zero,1297
   139e8:	00014618 	cmpnei	zero,zero,1304
   139ec:	00013b2c 	andhi	zero,zero,1260
   139f0:	00013c44 	movi	zero,1265
   139f4:	00014618 	cmpnei	zero,zero,1304
   139f8:	00013cd0 	cmplti	zero,zero,1267
   139fc:	00013c94 	movui	zero,1266
   13a00:	00013c94 	movui	zero,1266
   13a04:	00013c94 	movui	zero,1266
   13a08:	00013c94 	movui	zero,1266
   13a0c:	00013c94 	movui	zero,1266
   13a10:	00013c94 	movui	zero,1266
   13a14:	00013c94 	movui	zero,1266
   13a18:	00013c94 	movui	zero,1266
   13a1c:	00013c94 	movui	zero,1266
   13a20:	00014618 	cmpnei	zero,zero,1304
   13a24:	00014618 	cmpnei	zero,zero,1304
   13a28:	00014618 	cmpnei	zero,zero,1304
   13a2c:	00014618 	cmpnei	zero,zero,1304
   13a30:	00014618 	cmpnei	zero,zero,1304
   13a34:	00014618 	cmpnei	zero,zero,1304
   13a38:	00014618 	cmpnei	zero,zero,1304
   13a3c:	00014618 	cmpnei	zero,zero,1304
   13a40:	00014618 	cmpnei	zero,zero,1304
   13a44:	00014618 	cmpnei	zero,zero,1304
   13a48:	00013d94 	movui	zero,1270
   13a4c:	00013cdc 	xori	zero,zero,1267
   13a50:	00014618 	cmpnei	zero,zero,1304
   13a54:	00013cdc 	xori	zero,zero,1267
   13a58:	00014618 	cmpnei	zero,zero,1304
   13a5c:	00014618 	cmpnei	zero,zero,1304
   13a60:	00014618 	cmpnei	zero,zero,1304
   13a64:	00014618 	cmpnei	zero,zero,1304
   13a68:	00013d88 	cmpgei	zero,zero,1270
   13a6c:	00014618 	cmpnei	zero,zero,1304
   13a70:	00014618 	cmpnei	zero,zero,1304
   13a74:	00013e5c 	xori	zero,zero,1273
   13a78:	00014618 	cmpnei	zero,zero,1304
   13a7c:	00014618 	cmpnei	zero,zero,1304
   13a80:	00014618 	cmpnei	zero,zero,1304
   13a84:	00014618 	cmpnei	zero,zero,1304
   13a88:	00014618 	cmpnei	zero,zero,1304
   13a8c:	000142d8 	cmpnei	zero,zero,1291
   13a90:	00014618 	cmpnei	zero,zero,1304
   13a94:	00014618 	cmpnei	zero,zero,1304
   13a98:	00014344 	movi	zero,1293
   13a9c:	00014618 	cmpnei	zero,zero,1304
   13aa0:	00014618 	cmpnei	zero,zero,1304
   13aa4:	00014618 	cmpnei	zero,zero,1304
   13aa8:	00014618 	cmpnei	zero,zero,1304
   13aac:	00014618 	cmpnei	zero,zero,1304
   13ab0:	00014618 	cmpnei	zero,zero,1304
   13ab4:	00014618 	cmpnei	zero,zero,1304
   13ab8:	00014618 	cmpnei	zero,zero,1304
   13abc:	00014618 	cmpnei	zero,zero,1304
   13ac0:	00014618 	cmpnei	zero,zero,1304
   13ac4:	00014400 	call	1440 <__alt_mem_onchip_memory-0xebc0>
   13ac8:	00014580 	call	1458 <__alt_mem_onchip_memory-0xeba8>
   13acc:	00013cdc 	xori	zero,zero,1267
   13ad0:	00013cdc 	xori	zero,zero,1267
   13ad4:	00013cdc 	xori	zero,zero,1267
   13ad8:	000145f4 	movhi	zero,1303
   13adc:	00014580 	call	1458 <__alt_mem_onchip_memory-0xeba8>
   13ae0:	00014618 	cmpnei	zero,zero,1304
   13ae4:	00014618 	cmpnei	zero,zero,1304
   13ae8:	000145a0 	cmpeqi	zero,zero,1302
   13aec:	00014618 	cmpnei	zero,zero,1304
   13af0:	000145b4 	movhi	zero,1302
   13af4:	00014444 	movi	zero,1297
   13af8:	00013b38 	rdprs	zero,zero,1260
   13afc:	0001447c 	xorhi	zero,zero,1297
   13b00:	00014618 	cmpnei	zero,zero,1304
   13b04:	00014488 	cmpgei	zero,zero,1298
   13b08:	00014618 	cmpnei	zero,zero,1304
   13b0c:	000144ec 	andhi	zero,zero,1299
   13b10:	00014618 	cmpnei	zero,zero,1304
   13b14:	00014618 	cmpnei	zero,zero,1304
   13b18:	0001450c 	andi	zero,zero,1300
   13b1c:	d8c03117 	ldw	r3,196(sp)
   13b20:	d8802e15 	stw	r2,184(sp)
   13b24:	00c7c83a 	sub	r3,zero,r3
   13b28:	d8c03115 	stw	r3,196(sp)
   13b2c:	84000114 	ori	r16,r16,4
   13b30:	bc400007 	ldb	r17,0(r23)
   13b34:	003f9706 	br	13994 <_gp+0xfffed8d8>
   13b38:	00800c04 	movi	r2,48
   13b3c:	d8802705 	stb	r2,156(sp)
   13b40:	00801e04 	movi	r2,120
   13b44:	d8802745 	stb	r2,157(sp)
   13b48:	d9002a17 	ldw	r4,168(sp)
   13b4c:	d8802e17 	ldw	r2,184(sp)
   13b50:	d8002785 	stb	zero,158(sp)
   13b54:	e011883a 	mov	r8,fp
   13b58:	10c00104 	addi	r3,r2,4
   13b5c:	15000017 	ldw	r20,0(r2)
   13b60:	002d883a 	mov	r22,zero
   13b64:	80800094 	ori	r2,r16,2
   13b68:	2002b616 	blt	r4,zero,14644 <___svfprintf_internal_r+0xe04>
   13b6c:	00bfdfc4 	movi	r2,-129
   13b70:	80a4703a 	and	r18,r16,r2
   13b74:	d8c02e15 	stw	r3,184(sp)
   13b78:	94800094 	ori	r18,r18,2
   13b7c:	a002a01e 	bne	r20,zero,14600 <___svfprintf_internal_r+0xdc0>
   13b80:	014000b4 	movhi	r5,2
   13b84:	29757a04 	addi	r5,r5,-10776
   13b88:	d9403a15 	stw	r5,232(sp)
   13b8c:	04401e04 	movi	r17,120
   13b90:	d8c02a17 	ldw	r3,168(sp)
   13b94:	0039883a 	mov	fp,zero
   13b98:	1801e626 	beq	r3,zero,14334 <___svfprintf_internal_r+0xaf4>
   13b9c:	0029883a 	mov	r20,zero
   13ba0:	002d883a 	mov	r22,zero
   13ba4:	00020506 	br	143bc <___svfprintf_internal_r+0xb7c>
   13ba8:	d9402d17 	ldw	r5,180(sp)
   13bac:	d9801e04 	addi	r6,sp,120
   13bb0:	9809883a 	mov	r4,r19
   13bb4:	0018e040 	call	18e04 <__ssprint_r>
   13bb8:	1000081e 	bne	r2,zero,13bdc <___svfprintf_internal_r+0x39c>
   13bbc:	da000404 	addi	r8,sp,16
   13bc0:	003f6106 	br	13948 <_gp+0xfffed88c>
   13bc4:	d8802017 	ldw	r2,128(sp)
   13bc8:	10000426 	beq	r2,zero,13bdc <___svfprintf_internal_r+0x39c>
   13bcc:	d9402d17 	ldw	r5,180(sp)
   13bd0:	d9003917 	ldw	r4,228(sp)
   13bd4:	d9801e04 	addi	r6,sp,120
   13bd8:	0018e040 	call	18e04 <__ssprint_r>
   13bdc:	d8802d17 	ldw	r2,180(sp)
   13be0:	10c0030b 	ldhu	r3,12(r2)
   13be4:	d8802f17 	ldw	r2,188(sp)
   13be8:	18c0100c 	andi	r3,r3,64
   13bec:	1806251e 	bne	r3,zero,15484 <___svfprintf_internal_r+0x1c44>
   13bf0:	dfc04817 	ldw	ra,288(sp)
   13bf4:	df004717 	ldw	fp,284(sp)
   13bf8:	ddc04617 	ldw	r23,280(sp)
   13bfc:	dd804517 	ldw	r22,276(sp)
   13c00:	dd404417 	ldw	r21,272(sp)
   13c04:	dd004317 	ldw	r20,268(sp)
   13c08:	dcc04217 	ldw	r19,264(sp)
   13c0c:	dc804117 	ldw	r18,260(sp)
   13c10:	dc404017 	ldw	r17,256(sp)
   13c14:	dc003f17 	ldw	r16,252(sp)
   13c18:	dec04904 	addi	sp,sp,292
   13c1c:	f800283a 	ret
   13c20:	d9002e17 	ldw	r4,184(sp)
   13c24:	d9402e17 	ldw	r5,184(sp)
   13c28:	21000017 	ldw	r4,0(r4)
   13c2c:	28800104 	addi	r2,r5,4
   13c30:	d9003115 	stw	r4,196(sp)
   13c34:	203fb916 	blt	r4,zero,13b1c <_gp+0xfffeda60>
   13c38:	d8802e15 	stw	r2,184(sp)
   13c3c:	bc400007 	ldb	r17,0(r23)
   13c40:	003f5406 	br	13994 <_gp+0xfffed8d8>
   13c44:	bc400007 	ldb	r17,0(r23)
   13c48:	01000a84 	movi	r4,42
   13c4c:	b8c00044 	addi	r3,r23,1
   13c50:	89076926 	beq	r17,r4,159f8 <___svfprintf_internal_r+0x21b8>
   13c54:	8cbff404 	addi	r18,r17,-48
   13c58:	b486b936 	bltu	r22,r18,15740 <___svfprintf_internal_r+0x1f00>
   13c5c:	0009883a 	mov	r4,zero
   13c60:	1823883a 	mov	r17,r3
   13c64:	01400284 	movi	r5,10
   13c68:	00122700 	call	12270 <__mulsi3>
   13c6c:	88c00007 	ldb	r3,0(r17)
   13c70:	1489883a 	add	r4,r2,r18
   13c74:	8dc00044 	addi	r23,r17,1
   13c78:	1cbff404 	addi	r18,r3,-48
   13c7c:	b823883a 	mov	r17,r23
   13c80:	b4bff82e 	bgeu	r22,r18,13c64 <_gp+0xfffedba8>
   13c84:	1823883a 	mov	r17,r3
   13c88:	20060416 	blt	r4,zero,1549c <___svfprintf_internal_r+0x1c5c>
   13c8c:	d9002a15 	stw	r4,168(sp)
   13c90:	003f4106 	br	13998 <_gp+0xfffed8dc>
   13c94:	8cbff404 	addi	r18,r17,-48
   13c98:	d8003115 	stw	zero,196(sp)
   13c9c:	0009883a 	mov	r4,zero
   13ca0:	b823883a 	mov	r17,r23
   13ca4:	01400284 	movi	r5,10
   13ca8:	00122700 	call	12270 <__mulsi3>
   13cac:	88c00007 	ldb	r3,0(r17)
   13cb0:	9089883a 	add	r4,r18,r2
   13cb4:	bdc00044 	addi	r23,r23,1
   13cb8:	1cbff404 	addi	r18,r3,-48
   13cbc:	b823883a 	mov	r17,r23
   13cc0:	b4bff82e 	bgeu	r22,r18,13ca4 <_gp+0xfffedbe8>
   13cc4:	1823883a 	mov	r17,r3
   13cc8:	d9003115 	stw	r4,196(sp)
   13ccc:	003f3206 	br	13998 <_gp+0xfffed8dc>
   13cd0:	84002014 	ori	r16,r16,128
   13cd4:	bc400007 	ldb	r17,0(r23)
   13cd8:	003f2e06 	br	13994 <_gp+0xfffed8d8>
   13cdc:	8025883a 	mov	r18,r16
   13ce0:	dc002903 	ldbu	r16,164(sp)
   13ce4:	e011883a 	mov	r8,fp
   13ce8:	84003fcc 	andi	r16,r16,255
   13cec:	8007721e 	bne	r16,zero,15ab8 <___svfprintf_internal_r+0x2278>
   13cf0:	9080020c 	andi	r2,r18,8
   13cf4:	1004a526 	beq	r2,zero,14f8c <___svfprintf_internal_r+0x174c>
   13cf8:	d9002e17 	ldw	r4,184(sp)
   13cfc:	d9402e17 	ldw	r5,184(sp)
   13d00:	d8802e17 	ldw	r2,184(sp)
   13d04:	21000017 	ldw	r4,0(r4)
   13d08:	29400117 	ldw	r5,4(r5)
   13d0c:	10800204 	addi	r2,r2,8
   13d10:	d9003615 	stw	r4,216(sp)
   13d14:	d9403715 	stw	r5,220(sp)
   13d18:	d8802e15 	stw	r2,184(sp)
   13d1c:	d9003617 	ldw	r4,216(sp)
   13d20:	d9403717 	ldw	r5,220(sp)
   13d24:	da003e15 	stw	r8,248(sp)
   13d28:	04000044 	movi	r16,1
   13d2c:	0018c1c0 	call	18c1c <__fpclassifyd>
   13d30:	da003e17 	ldw	r8,248(sp)
   13d34:	1404731e 	bne	r2,r16,14f04 <___svfprintf_internal_r+0x16c4>
   13d38:	d9003617 	ldw	r4,216(sp)
   13d3c:	d9403717 	ldw	r5,220(sp)
   13d40:	000d883a 	mov	r6,zero
   13d44:	000f883a 	mov	r7,zero
   13d48:	001c2040 	call	1c204 <__ledf2>
   13d4c:	da003e17 	ldw	r8,248(sp)
   13d50:	10061b16 	blt	r2,zero,155c0 <___svfprintf_internal_r+0x1d80>
   13d54:	df002783 	ldbu	fp,158(sp)
   13d58:	008011c4 	movi	r2,71
   13d5c:	1445810e 	bge	r2,r17,15364 <___svfprintf_internal_r+0x1b24>
   13d60:	040000b4 	movhi	r16,2
   13d64:	84357204 	addi	r16,r16,-10808
   13d68:	00c000c4 	movi	r3,3
   13d6c:	00bfdfc4 	movi	r2,-129
   13d70:	d8c02915 	stw	r3,164(sp)
   13d74:	90a4703a 	and	r18,r18,r2
   13d78:	d8c02b15 	stw	r3,172(sp)
   13d7c:	d8002a15 	stw	zero,168(sp)
   13d80:	d8003215 	stw	zero,200(sp)
   13d84:	00006c06 	br	13f38 <___svfprintf_internal_r+0x6f8>
   13d88:	84000214 	ori	r16,r16,8
   13d8c:	bc400007 	ldb	r17,0(r23)
   13d90:	003f0006 	br	13994 <_gp+0xfffed8d8>
   13d94:	8025883a 	mov	r18,r16
   13d98:	dc002903 	ldbu	r16,164(sp)
   13d9c:	e011883a 	mov	r8,fp
   13da0:	84003fcc 	andi	r16,r16,255
   13da4:	80073f1e 	bne	r16,zero,15aa4 <___svfprintf_internal_r+0x2264>
   13da8:	94800414 	ori	r18,r18,16
   13dac:	9080080c 	andi	r2,r18,32
   13db0:	1003bb26 	beq	r2,zero,14ca0 <___svfprintf_internal_r+0x1460>
   13db4:	d9002e17 	ldw	r4,184(sp)
   13db8:	20800117 	ldw	r2,4(r4)
   13dbc:	25000017 	ldw	r20,0(r4)
   13dc0:	21000204 	addi	r4,r4,8
   13dc4:	d9002e15 	stw	r4,184(sp)
   13dc8:	102d883a 	mov	r22,r2
   13dcc:	1003bd16 	blt	r2,zero,14cc4 <___svfprintf_internal_r+0x1484>
   13dd0:	d9002a17 	ldw	r4,168(sp)
   13dd4:	df002783 	ldbu	fp,158(sp)
   13dd8:	2003d016 	blt	r4,zero,14d1c <___svfprintf_internal_r+0x14dc>
   13ddc:	00ffdfc4 	movi	r3,-129
   13de0:	a584b03a 	or	r2,r20,r22
   13de4:	90e4703a 	and	r18,r18,r3
   13de8:	10015026 	beq	r2,zero,1432c <___svfprintf_internal_r+0xaec>
   13dec:	b0037026 	beq	r22,zero,14bb0 <___svfprintf_internal_r+0x1370>
   13df0:	dc402915 	stw	r17,164(sp)
   13df4:	dc001e04 	addi	r16,sp,120
   13df8:	b023883a 	mov	r17,r22
   13dfc:	402d883a 	mov	r22,r8
   13e00:	a009883a 	mov	r4,r20
   13e04:	880b883a 	mov	r5,r17
   13e08:	01800284 	movi	r6,10
   13e0c:	000f883a 	mov	r7,zero
   13e10:	001b10c0 	call	1b10c <__umoddi3>
   13e14:	10800c04 	addi	r2,r2,48
   13e18:	843fffc4 	addi	r16,r16,-1
   13e1c:	a009883a 	mov	r4,r20
   13e20:	880b883a 	mov	r5,r17
   13e24:	80800005 	stb	r2,0(r16)
   13e28:	01800284 	movi	r6,10
   13e2c:	000f883a 	mov	r7,zero
   13e30:	001ab100 	call	1ab10 <__udivdi3>
   13e34:	1029883a 	mov	r20,r2
   13e38:	10c4b03a 	or	r2,r2,r3
   13e3c:	1823883a 	mov	r17,r3
   13e40:	103fef1e 	bne	r2,zero,13e00 <_gp+0xfffedd44>
   13e44:	d8c02817 	ldw	r3,160(sp)
   13e48:	dc402917 	ldw	r17,164(sp)
   13e4c:	b011883a 	mov	r8,r22
   13e50:	1c07c83a 	sub	r3,r3,r16
   13e54:	d8c02b15 	stw	r3,172(sp)
   13e58:	00003106 	br	13f20 <___svfprintf_internal_r+0x6e0>
   13e5c:	8025883a 	mov	r18,r16
   13e60:	dc002903 	ldbu	r16,164(sp)
   13e64:	e011883a 	mov	r8,fp
   13e68:	84003fcc 	andi	r16,r16,255
   13e6c:	80070a1e 	bne	r16,zero,15a98 <___svfprintf_internal_r+0x2258>
   13e70:	94800414 	ori	r18,r18,16
   13e74:	9080080c 	andi	r2,r18,32
   13e78:	1002f626 	beq	r2,zero,14a54 <___svfprintf_internal_r+0x1214>
   13e7c:	d9002e17 	ldw	r4,184(sp)
   13e80:	d9402a17 	ldw	r5,168(sp)
   13e84:	d8002785 	stb	zero,158(sp)
   13e88:	20800204 	addi	r2,r4,8
   13e8c:	25000017 	ldw	r20,0(r4)
   13e90:	25800117 	ldw	r22,4(r4)
   13e94:	28043716 	blt	r5,zero,14f74 <___svfprintf_internal_r+0x1734>
   13e98:	013fdfc4 	movi	r4,-129
   13e9c:	a586b03a 	or	r3,r20,r22
   13ea0:	d8802e15 	stw	r2,184(sp)
   13ea4:	9124703a 	and	r18,r18,r4
   13ea8:	1802f71e 	bne	r3,zero,14a88 <___svfprintf_internal_r+0x1248>
   13eac:	d9402a17 	ldw	r5,168(sp)
   13eb0:	0039883a 	mov	fp,zero
   13eb4:	2806df26 	beq	r5,zero,15a34 <___svfprintf_internal_r+0x21f4>
   13eb8:	0029883a 	mov	r20,zero
   13ebc:	002d883a 	mov	r22,zero
   13ec0:	dc001e04 	addi	r16,sp,120
   13ec4:	a006d0fa 	srli	r3,r20,3
   13ec8:	b008977a 	slli	r4,r22,29
   13ecc:	b02cd0fa 	srli	r22,r22,3
   13ed0:	a50001cc 	andi	r20,r20,7
   13ed4:	a0800c04 	addi	r2,r20,48
   13ed8:	843fffc4 	addi	r16,r16,-1
   13edc:	20e8b03a 	or	r20,r4,r3
   13ee0:	80800005 	stb	r2,0(r16)
   13ee4:	a586b03a 	or	r3,r20,r22
   13ee8:	183ff61e 	bne	r3,zero,13ec4 <_gp+0xfffede08>
   13eec:	90c0004c 	andi	r3,r18,1
   13ef0:	18013f26 	beq	r3,zero,143f0 <___svfprintf_internal_r+0xbb0>
   13ef4:	10803fcc 	andi	r2,r2,255
   13ef8:	1080201c 	xori	r2,r2,128
   13efc:	10bfe004 	addi	r2,r2,-128
   13f00:	00c00c04 	movi	r3,48
   13f04:	10c13a26 	beq	r2,r3,143f0 <___svfprintf_internal_r+0xbb0>
   13f08:	80ffffc5 	stb	r3,-1(r16)
   13f0c:	d8c02817 	ldw	r3,160(sp)
   13f10:	80bfffc4 	addi	r2,r16,-1
   13f14:	1021883a 	mov	r16,r2
   13f18:	1887c83a 	sub	r3,r3,r2
   13f1c:	d8c02b15 	stw	r3,172(sp)
   13f20:	d8802b17 	ldw	r2,172(sp)
   13f24:	d9002a17 	ldw	r4,168(sp)
   13f28:	1100010e 	bge	r2,r4,13f30 <___svfprintf_internal_r+0x6f0>
   13f2c:	2005883a 	mov	r2,r4
   13f30:	d8802915 	stw	r2,164(sp)
   13f34:	d8003215 	stw	zero,200(sp)
   13f38:	e7003fcc 	andi	fp,fp,255
   13f3c:	e700201c 	xori	fp,fp,128
   13f40:	e73fe004 	addi	fp,fp,-128
   13f44:	e0000326 	beq	fp,zero,13f54 <___svfprintf_internal_r+0x714>
   13f48:	d8c02917 	ldw	r3,164(sp)
   13f4c:	18c00044 	addi	r3,r3,1
   13f50:	d8c02915 	stw	r3,164(sp)
   13f54:	90c0008c 	andi	r3,r18,2
   13f58:	d8c02c15 	stw	r3,176(sp)
   13f5c:	18000326 	beq	r3,zero,13f6c <___svfprintf_internal_r+0x72c>
   13f60:	d8c02917 	ldw	r3,164(sp)
   13f64:	18c00084 	addi	r3,r3,2
   13f68:	d8c02915 	stw	r3,164(sp)
   13f6c:	90c0210c 	andi	r3,r18,132
   13f70:	d8c03015 	stw	r3,192(sp)
   13f74:	1801c31e 	bne	r3,zero,14684 <___svfprintf_internal_r+0xe44>
   13f78:	d9003117 	ldw	r4,196(sp)
   13f7c:	d8c02917 	ldw	r3,164(sp)
   13f80:	20e9c83a 	sub	r20,r4,r3
   13f84:	0501bf0e 	bge	zero,r20,14684 <___svfprintf_internal_r+0xe44>
   13f88:	02400404 	movi	r9,16
   13f8c:	d8c02017 	ldw	r3,128(sp)
   13f90:	d8801f17 	ldw	r2,124(sp)
   13f94:	4d053d0e 	bge	r9,r20,1548c <___svfprintf_internal_r+0x1c4c>
   13f98:	014000b4 	movhi	r5,2
   13f9c:	29758584 	addi	r5,r5,-10730
   13fa0:	dc403c15 	stw	r17,240(sp)
   13fa4:	d9403515 	stw	r5,212(sp)
   13fa8:	a023883a 	mov	r17,r20
   13fac:	482d883a 	mov	r22,r9
   13fb0:	9029883a 	mov	r20,r18
   13fb4:	070001c4 	movi	fp,7
   13fb8:	8025883a 	mov	r18,r16
   13fbc:	dc002d17 	ldw	r16,180(sp)
   13fc0:	00000306 	br	13fd0 <___svfprintf_internal_r+0x790>
   13fc4:	8c7ffc04 	addi	r17,r17,-16
   13fc8:	42000204 	addi	r8,r8,8
   13fcc:	b440130e 	bge	r22,r17,1401c <___svfprintf_internal_r+0x7dc>
   13fd0:	010000b4 	movhi	r4,2
   13fd4:	18c00404 	addi	r3,r3,16
   13fd8:	10800044 	addi	r2,r2,1
   13fdc:	21358584 	addi	r4,r4,-10730
   13fe0:	41000015 	stw	r4,0(r8)
   13fe4:	45800115 	stw	r22,4(r8)
   13fe8:	d8c02015 	stw	r3,128(sp)
   13fec:	d8801f15 	stw	r2,124(sp)
   13ff0:	e0bff40e 	bge	fp,r2,13fc4 <_gp+0xfffedf08>
   13ff4:	d9801e04 	addi	r6,sp,120
   13ff8:	800b883a 	mov	r5,r16
   13ffc:	9809883a 	mov	r4,r19
   14000:	0018e040 	call	18e04 <__ssprint_r>
   14004:	103ef51e 	bne	r2,zero,13bdc <_gp+0xfffedb20>
   14008:	8c7ffc04 	addi	r17,r17,-16
   1400c:	d8c02017 	ldw	r3,128(sp)
   14010:	d8801f17 	ldw	r2,124(sp)
   14014:	da000404 	addi	r8,sp,16
   14018:	b47fed16 	blt	r22,r17,13fd0 <_gp+0xfffedf14>
   1401c:	9021883a 	mov	r16,r18
   14020:	a025883a 	mov	r18,r20
   14024:	8829883a 	mov	r20,r17
   14028:	dc403c17 	ldw	r17,240(sp)
   1402c:	d9403517 	ldw	r5,212(sp)
   14030:	a0c7883a 	add	r3,r20,r3
   14034:	10800044 	addi	r2,r2,1
   14038:	41400015 	stw	r5,0(r8)
   1403c:	45000115 	stw	r20,4(r8)
   14040:	d8c02015 	stw	r3,128(sp)
   14044:	d8801f15 	stw	r2,124(sp)
   14048:	010001c4 	movi	r4,7
   1404c:	2082c116 	blt	r4,r2,14b54 <___svfprintf_internal_r+0x1314>
   14050:	df002787 	ldb	fp,158(sp)
   14054:	42000204 	addi	r8,r8,8
   14058:	e0000c26 	beq	fp,zero,1408c <___svfprintf_internal_r+0x84c>
   1405c:	d8801f17 	ldw	r2,124(sp)
   14060:	d9002784 	addi	r4,sp,158
   14064:	18c00044 	addi	r3,r3,1
   14068:	10800044 	addi	r2,r2,1
   1406c:	41000015 	stw	r4,0(r8)
   14070:	01000044 	movi	r4,1
   14074:	41000115 	stw	r4,4(r8)
   14078:	d8c02015 	stw	r3,128(sp)
   1407c:	d8801f15 	stw	r2,124(sp)
   14080:	010001c4 	movi	r4,7
   14084:	20825a16 	blt	r4,r2,149f0 <___svfprintf_internal_r+0x11b0>
   14088:	42000204 	addi	r8,r8,8
   1408c:	d8802c17 	ldw	r2,176(sp)
   14090:	10000c26 	beq	r2,zero,140c4 <___svfprintf_internal_r+0x884>
   14094:	d8801f17 	ldw	r2,124(sp)
   14098:	d9002704 	addi	r4,sp,156
   1409c:	18c00084 	addi	r3,r3,2
   140a0:	10800044 	addi	r2,r2,1
   140a4:	41000015 	stw	r4,0(r8)
   140a8:	01000084 	movi	r4,2
   140ac:	41000115 	stw	r4,4(r8)
   140b0:	d8c02015 	stw	r3,128(sp)
   140b4:	d8801f15 	stw	r2,124(sp)
   140b8:	010001c4 	movi	r4,7
   140bc:	20825416 	blt	r4,r2,14a10 <___svfprintf_internal_r+0x11d0>
   140c0:	42000204 	addi	r8,r8,8
   140c4:	d9003017 	ldw	r4,192(sp)
   140c8:	00802004 	movi	r2,128
   140cc:	2081b926 	beq	r4,r2,147b4 <___svfprintf_internal_r+0xf74>
   140d0:	d9402a17 	ldw	r5,168(sp)
   140d4:	d8802b17 	ldw	r2,172(sp)
   140d8:	28adc83a 	sub	r22,r5,r2
   140dc:	05802f0e 	bge	zero,r22,1419c <___svfprintf_internal_r+0x95c>
   140e0:	07000404 	movi	fp,16
   140e4:	d8801f17 	ldw	r2,124(sp)
   140e8:	e583e20e 	bge	fp,r22,15074 <___svfprintf_internal_r+0x1834>
   140ec:	014000b4 	movhi	r5,2
   140f0:	29758184 	addi	r5,r5,-10746
   140f4:	dc402a15 	stw	r17,168(sp)
   140f8:	d9402c15 	stw	r5,176(sp)
   140fc:	b023883a 	mov	r17,r22
   14100:	050001c4 	movi	r20,7
   14104:	902d883a 	mov	r22,r18
   14108:	8025883a 	mov	r18,r16
   1410c:	dc002d17 	ldw	r16,180(sp)
   14110:	00000306 	br	14120 <___svfprintf_internal_r+0x8e0>
   14114:	8c7ffc04 	addi	r17,r17,-16
   14118:	42000204 	addi	r8,r8,8
   1411c:	e440110e 	bge	fp,r17,14164 <___svfprintf_internal_r+0x924>
   14120:	18c00404 	addi	r3,r3,16
   14124:	10800044 	addi	r2,r2,1
   14128:	45400015 	stw	r21,0(r8)
   1412c:	47000115 	stw	fp,4(r8)
   14130:	d8c02015 	stw	r3,128(sp)
   14134:	d8801f15 	stw	r2,124(sp)
   14138:	a0bff60e 	bge	r20,r2,14114 <_gp+0xfffee058>
   1413c:	d9801e04 	addi	r6,sp,120
   14140:	800b883a 	mov	r5,r16
   14144:	9809883a 	mov	r4,r19
   14148:	0018e040 	call	18e04 <__ssprint_r>
   1414c:	103ea31e 	bne	r2,zero,13bdc <_gp+0xfffedb20>
   14150:	8c7ffc04 	addi	r17,r17,-16
   14154:	d8c02017 	ldw	r3,128(sp)
   14158:	d8801f17 	ldw	r2,124(sp)
   1415c:	da000404 	addi	r8,sp,16
   14160:	e47fef16 	blt	fp,r17,14120 <_gp+0xfffee064>
   14164:	9021883a 	mov	r16,r18
   14168:	b025883a 	mov	r18,r22
   1416c:	882d883a 	mov	r22,r17
   14170:	dc402a17 	ldw	r17,168(sp)
   14174:	d9002c17 	ldw	r4,176(sp)
   14178:	1d87883a 	add	r3,r3,r22
   1417c:	10800044 	addi	r2,r2,1
   14180:	41000015 	stw	r4,0(r8)
   14184:	45800115 	stw	r22,4(r8)
   14188:	d8c02015 	stw	r3,128(sp)
   1418c:	d8801f15 	stw	r2,124(sp)
   14190:	010001c4 	movi	r4,7
   14194:	20820e16 	blt	r4,r2,149d0 <___svfprintf_internal_r+0x1190>
   14198:	42000204 	addi	r8,r8,8
   1419c:	9080400c 	andi	r2,r18,256
   141a0:	10013a1e 	bne	r2,zero,1468c <___svfprintf_internal_r+0xe4c>
   141a4:	d9402b17 	ldw	r5,172(sp)
   141a8:	d8801f17 	ldw	r2,124(sp)
   141ac:	44000015 	stw	r16,0(r8)
   141b0:	1947883a 	add	r3,r3,r5
   141b4:	10800044 	addi	r2,r2,1
   141b8:	41400115 	stw	r5,4(r8)
   141bc:	d8c02015 	stw	r3,128(sp)
   141c0:	d8801f15 	stw	r2,124(sp)
   141c4:	010001c4 	movi	r4,7
   141c8:	2081f316 	blt	r4,r2,14998 <___svfprintf_internal_r+0x1158>
   141cc:	42000204 	addi	r8,r8,8
   141d0:	9480010c 	andi	r18,r18,4
   141d4:	90003226 	beq	r18,zero,142a0 <___svfprintf_internal_r+0xa60>
   141d8:	d9403117 	ldw	r5,196(sp)
   141dc:	d8802917 	ldw	r2,164(sp)
   141e0:	28a1c83a 	sub	r16,r5,r2
   141e4:	04002e0e 	bge	zero,r16,142a0 <___svfprintf_internal_r+0xa60>
   141e8:	04400404 	movi	r17,16
   141ec:	d8801f17 	ldw	r2,124(sp)
   141f0:	8c04db0e 	bge	r17,r16,15560 <___svfprintf_internal_r+0x1d20>
   141f4:	014000b4 	movhi	r5,2
   141f8:	29758584 	addi	r5,r5,-10730
   141fc:	d9403515 	stw	r5,212(sp)
   14200:	048001c4 	movi	r18,7
   14204:	dd002d17 	ldw	r20,180(sp)
   14208:	00000306 	br	14218 <___svfprintf_internal_r+0x9d8>
   1420c:	843ffc04 	addi	r16,r16,-16
   14210:	42000204 	addi	r8,r8,8
   14214:	8c00130e 	bge	r17,r16,14264 <___svfprintf_internal_r+0xa24>
   14218:	010000b4 	movhi	r4,2
   1421c:	18c00404 	addi	r3,r3,16
   14220:	10800044 	addi	r2,r2,1
   14224:	21358584 	addi	r4,r4,-10730
   14228:	41000015 	stw	r4,0(r8)
   1422c:	44400115 	stw	r17,4(r8)
   14230:	d8c02015 	stw	r3,128(sp)
   14234:	d8801f15 	stw	r2,124(sp)
   14238:	90bff40e 	bge	r18,r2,1420c <_gp+0xfffee150>
   1423c:	d9801e04 	addi	r6,sp,120
   14240:	a00b883a 	mov	r5,r20
   14244:	9809883a 	mov	r4,r19
   14248:	0018e040 	call	18e04 <__ssprint_r>
   1424c:	103e631e 	bne	r2,zero,13bdc <_gp+0xfffedb20>
   14250:	843ffc04 	addi	r16,r16,-16
   14254:	d8c02017 	ldw	r3,128(sp)
   14258:	d8801f17 	ldw	r2,124(sp)
   1425c:	da000404 	addi	r8,sp,16
   14260:	8c3fed16 	blt	r17,r16,14218 <_gp+0xfffee15c>
   14264:	d9403517 	ldw	r5,212(sp)
   14268:	1c07883a 	add	r3,r3,r16
   1426c:	10800044 	addi	r2,r2,1
   14270:	41400015 	stw	r5,0(r8)
   14274:	44000115 	stw	r16,4(r8)
   14278:	d8c02015 	stw	r3,128(sp)
   1427c:	d8801f15 	stw	r2,124(sp)
   14280:	010001c4 	movi	r4,7
   14284:	2080060e 	bge	r4,r2,142a0 <___svfprintf_internal_r+0xa60>
   14288:	d9402d17 	ldw	r5,180(sp)
   1428c:	d9801e04 	addi	r6,sp,120
   14290:	9809883a 	mov	r4,r19
   14294:	0018e040 	call	18e04 <__ssprint_r>
   14298:	103e501e 	bne	r2,zero,13bdc <_gp+0xfffedb20>
   1429c:	d8c02017 	ldw	r3,128(sp)
   142a0:	d8803117 	ldw	r2,196(sp)
   142a4:	d9002917 	ldw	r4,164(sp)
   142a8:	1100010e 	bge	r2,r4,142b0 <___svfprintf_internal_r+0xa70>
   142ac:	2005883a 	mov	r2,r4
   142b0:	d9402f17 	ldw	r5,188(sp)
   142b4:	288b883a 	add	r5,r5,r2
   142b8:	d9402f15 	stw	r5,188(sp)
   142bc:	1801be1e 	bne	r3,zero,149b8 <___svfprintf_internal_r+0x1178>
   142c0:	b8800007 	ldb	r2,0(r23)
   142c4:	d8001f15 	stw	zero,124(sp)
   142c8:	da000404 	addi	r8,sp,16
   142cc:	103d891e 	bne	r2,zero,138f4 <_gp+0xfffed838>
   142d0:	b823883a 	mov	r17,r23
   142d4:	003d9f06 	br	13954 <_gp+0xfffed898>
   142d8:	8025883a 	mov	r18,r16
   142dc:	dc002903 	ldbu	r16,164(sp)
   142e0:	e011883a 	mov	r8,fp
   142e4:	84003fcc 	andi	r16,r16,255
   142e8:	8005e61e 	bne	r16,zero,15a84 <___svfprintf_internal_r+0x2244>
   142ec:	94800414 	ori	r18,r18,16
   142f0:	9080080c 	andi	r2,r18,32
   142f4:	10022026 	beq	r2,zero,14b78 <___svfprintf_internal_r+0x1338>
   142f8:	d9002e17 	ldw	r4,184(sp)
   142fc:	d9402a17 	ldw	r5,168(sp)
   14300:	d8002785 	stb	zero,158(sp)
   14304:	20c00204 	addi	r3,r4,8
   14308:	25000017 	ldw	r20,0(r4)
   1430c:	25800117 	ldw	r22,4(r4)
   14310:	2803ad16 	blt	r5,zero,151c8 <___svfprintf_internal_r+0x1988>
   14314:	013fdfc4 	movi	r4,-129
   14318:	a584b03a 	or	r2,r20,r22
   1431c:	d8c02e15 	stw	r3,184(sp)
   14320:	9124703a 	and	r18,r18,r4
   14324:	0039883a 	mov	fp,zero
   14328:	103eb01e 	bne	r2,zero,13dec <_gp+0xfffedd30>
   1432c:	d8802a17 	ldw	r2,168(sp)
   14330:	1002e71e 	bne	r2,zero,14ed0 <___svfprintf_internal_r+0x1690>
   14334:	d8002a15 	stw	zero,168(sp)
   14338:	d8002b15 	stw	zero,172(sp)
   1433c:	dc001e04 	addi	r16,sp,120
   14340:	003ef706 	br	13f20 <_gp+0xfffede64>
   14344:	8025883a 	mov	r18,r16
   14348:	dc002903 	ldbu	r16,164(sp)
   1434c:	e011883a 	mov	r8,fp
   14350:	84003fcc 	andi	r16,r16,255
   14354:	8005c81e 	bne	r16,zero,15a78 <___svfprintf_internal_r+0x2238>
   14358:	010000b4 	movhi	r4,2
   1435c:	21357504 	addi	r4,r4,-10796
   14360:	d9003a15 	stw	r4,232(sp)
   14364:	9080080c 	andi	r2,r18,32
   14368:	10007226 	beq	r2,zero,14534 <___svfprintf_internal_r+0xcf4>
   1436c:	d9402e17 	ldw	r5,184(sp)
   14370:	2d000017 	ldw	r20,0(r5)
   14374:	2d800117 	ldw	r22,4(r5)
   14378:	29400204 	addi	r5,r5,8
   1437c:	d9402e15 	stw	r5,184(sp)
   14380:	9080004c 	andi	r2,r18,1
   14384:	1001aa26 	beq	r2,zero,14a30 <___svfprintf_internal_r+0x11f0>
   14388:	a584b03a 	or	r2,r20,r22
   1438c:	10032526 	beq	r2,zero,15024 <___svfprintf_internal_r+0x17e4>
   14390:	d8c02a17 	ldw	r3,168(sp)
   14394:	00800c04 	movi	r2,48
   14398:	d8802705 	stb	r2,156(sp)
   1439c:	dc402745 	stb	r17,157(sp)
   143a0:	d8002785 	stb	zero,158(sp)
   143a4:	90800094 	ori	r2,r18,2
   143a8:	1804a316 	blt	r3,zero,15638 <___svfprintf_internal_r+0x1df8>
   143ac:	00bfdfc4 	movi	r2,-129
   143b0:	90a4703a 	and	r18,r18,r2
   143b4:	94800094 	ori	r18,r18,2
   143b8:	0039883a 	mov	fp,zero
   143bc:	d9003a17 	ldw	r4,232(sp)
   143c0:	dc001e04 	addi	r16,sp,120
   143c4:	a08003cc 	andi	r2,r20,15
   143c8:	b006973a 	slli	r3,r22,28
   143cc:	2085883a 	add	r2,r4,r2
   143d0:	a028d13a 	srli	r20,r20,4
   143d4:	10800003 	ldbu	r2,0(r2)
   143d8:	b02cd13a 	srli	r22,r22,4
   143dc:	843fffc4 	addi	r16,r16,-1
   143e0:	1d28b03a 	or	r20,r3,r20
   143e4:	80800005 	stb	r2,0(r16)
   143e8:	a584b03a 	or	r2,r20,r22
   143ec:	103ff51e 	bne	r2,zero,143c4 <_gp+0xfffee308>
   143f0:	d8c02817 	ldw	r3,160(sp)
   143f4:	1c07c83a 	sub	r3,r3,r16
   143f8:	d8c02b15 	stw	r3,172(sp)
   143fc:	003ec806 	br	13f20 <_gp+0xfffede64>
   14400:	d8c02e17 	ldw	r3,184(sp)
   14404:	d9002e17 	ldw	r4,184(sp)
   14408:	8025883a 	mov	r18,r16
   1440c:	18800017 	ldw	r2,0(r3)
   14410:	21000104 	addi	r4,r4,4
   14414:	00c00044 	movi	r3,1
   14418:	e011883a 	mov	r8,fp
   1441c:	d8c02915 	stw	r3,164(sp)
   14420:	d8002785 	stb	zero,158(sp)
   14424:	d8801405 	stb	r2,80(sp)
   14428:	d9002e15 	stw	r4,184(sp)
   1442c:	d8c02b15 	stw	r3,172(sp)
   14430:	d8002a15 	stw	zero,168(sp)
   14434:	d8003215 	stw	zero,200(sp)
   14438:	dc001404 	addi	r16,sp,80
   1443c:	0039883a 	mov	fp,zero
   14440:	003ec406 	br	13f54 <_gp+0xfffede98>
   14444:	8025883a 	mov	r18,r16
   14448:	dc002903 	ldbu	r16,164(sp)
   1444c:	e011883a 	mov	r8,fp
   14450:	84003fcc 	andi	r16,r16,255
   14454:	803e8726 	beq	r16,zero,13e74 <_gp+0xfffeddb8>
   14458:	d8c02b03 	ldbu	r3,172(sp)
   1445c:	d8c02785 	stb	r3,158(sp)
   14460:	003e8406 	br	13e74 <_gp+0xfffeddb8>
   14464:	00c00044 	movi	r3,1
   14468:	d8c02905 	stb	r3,164(sp)
   1446c:	00c00ac4 	movi	r3,43
   14470:	d8c02b05 	stb	r3,172(sp)
   14474:	bc400007 	ldb	r17,0(r23)
   14478:	003d4606 	br	13994 <_gp+0xfffed8d8>
   1447c:	84000814 	ori	r16,r16,32
   14480:	bc400007 	ldb	r17,0(r23)
   14484:	003d4306 	br	13994 <_gp+0xfffed8d8>
   14488:	d8802e17 	ldw	r2,184(sp)
   1448c:	8025883a 	mov	r18,r16
   14490:	d8002785 	stb	zero,158(sp)
   14494:	14000017 	ldw	r16,0(r2)
   14498:	e011883a 	mov	r8,fp
   1449c:	15000104 	addi	r20,r2,4
   144a0:	80042126 	beq	r16,zero,15528 <___svfprintf_internal_r+0x1ce8>
   144a4:	d8c02a17 	ldw	r3,168(sp)
   144a8:	1803ee16 	blt	r3,zero,15464 <___svfprintf_internal_r+0x1c24>
   144ac:	180d883a 	mov	r6,r3
   144b0:	000b883a 	mov	r5,zero
   144b4:	8009883a 	mov	r4,r16
   144b8:	df003e15 	stw	fp,248(sp)
   144bc:	00178bc0 	call	178bc <memchr>
   144c0:	da003e17 	ldw	r8,248(sp)
   144c4:	10046a26 	beq	r2,zero,15670 <___svfprintf_internal_r+0x1e30>
   144c8:	1405c83a 	sub	r2,r2,r16
   144cc:	d8802b15 	stw	r2,172(sp)
   144d0:	1003ea16 	blt	r2,zero,1547c <___svfprintf_internal_r+0x1c3c>
   144d4:	df002783 	ldbu	fp,158(sp)
   144d8:	d8802915 	stw	r2,164(sp)
   144dc:	dd002e15 	stw	r20,184(sp)
   144e0:	d8002a15 	stw	zero,168(sp)
   144e4:	d8003215 	stw	zero,200(sp)
   144e8:	003e9306 	br	13f38 <_gp+0xfffede7c>
   144ec:	8025883a 	mov	r18,r16
   144f0:	dc002903 	ldbu	r16,164(sp)
   144f4:	e011883a 	mov	r8,fp
   144f8:	84003fcc 	andi	r16,r16,255
   144fc:	803f7c26 	beq	r16,zero,142f0 <_gp+0xfffee234>
   14500:	d8c02b03 	ldbu	r3,172(sp)
   14504:	d8c02785 	stb	r3,158(sp)
   14508:	003f7906 	br	142f0 <_gp+0xfffee234>
   1450c:	8025883a 	mov	r18,r16
   14510:	dc002903 	ldbu	r16,164(sp)
   14514:	e011883a 	mov	r8,fp
   14518:	84003fcc 	andi	r16,r16,255
   1451c:	8005741e 	bne	r16,zero,15af0 <___svfprintf_internal_r+0x22b0>
   14520:	010000b4 	movhi	r4,2
   14524:	21357a04 	addi	r4,r4,-10776
   14528:	d9003a15 	stw	r4,232(sp)
   1452c:	9080080c 	andi	r2,r18,32
   14530:	103f8e1e 	bne	r2,zero,1436c <_gp+0xfffee2b0>
   14534:	9080040c 	andi	r2,r18,16
   14538:	1002a726 	beq	r2,zero,14fd8 <___svfprintf_internal_r+0x1798>
   1453c:	d8802e17 	ldw	r2,184(sp)
   14540:	002d883a 	mov	r22,zero
   14544:	15000017 	ldw	r20,0(r2)
   14548:	10800104 	addi	r2,r2,4
   1454c:	d8802e15 	stw	r2,184(sp)
   14550:	003f8b06 	br	14380 <_gp+0xfffee2c4>
   14554:	84000054 	ori	r16,r16,1
   14558:	bc400007 	ldb	r17,0(r23)
   1455c:	003d0d06 	br	13994 <_gp+0xfffed8d8>
   14560:	d8802b07 	ldb	r2,172(sp)
   14564:	1002a41e 	bne	r2,zero,14ff8 <___svfprintf_internal_r+0x17b8>
   14568:	00c00044 	movi	r3,1
   1456c:	d8c02905 	stb	r3,164(sp)
   14570:	00c00804 	movi	r3,32
   14574:	d8c02b05 	stb	r3,172(sp)
   14578:	bc400007 	ldb	r17,0(r23)
   1457c:	003d0506 	br	13994 <_gp+0xfffed8d8>
   14580:	8025883a 	mov	r18,r16
   14584:	dc002903 	ldbu	r16,164(sp)
   14588:	e011883a 	mov	r8,fp
   1458c:	84003fcc 	andi	r16,r16,255
   14590:	803e0626 	beq	r16,zero,13dac <_gp+0xfffedcf0>
   14594:	d8c02b03 	ldbu	r3,172(sp)
   14598:	d8c02785 	stb	r3,158(sp)
   1459c:	003e0306 	br	13dac <_gp+0xfffedcf0>
   145a0:	bc400007 	ldb	r17,0(r23)
   145a4:	00801b04 	movi	r2,108
   145a8:	88830a26 	beq	r17,r2,151d4 <___svfprintf_internal_r+0x1994>
   145ac:	84000414 	ori	r16,r16,16
   145b0:	003cf806 	br	13994 <_gp+0xfffed8d8>
   145b4:	8025883a 	mov	r18,r16
   145b8:	dc002903 	ldbu	r16,164(sp)
   145bc:	e011883a 	mov	r8,fp
   145c0:	84003fcc 	andi	r16,r16,255
   145c4:	8005471e 	bne	r16,zero,15ae4 <___svfprintf_internal_r+0x22a4>
   145c8:	9080080c 	andi	r2,r18,32
   145cc:	10028c26 	beq	r2,zero,15000 <___svfprintf_internal_r+0x17c0>
   145d0:	d9002e17 	ldw	r4,184(sp)
   145d4:	d9402f17 	ldw	r5,188(sp)
   145d8:	20800017 	ldw	r2,0(r4)
   145dc:	2807d7fa 	srai	r3,r5,31
   145e0:	21000104 	addi	r4,r4,4
   145e4:	d9002e15 	stw	r4,184(sp)
   145e8:	11400015 	stw	r5,0(r2)
   145ec:	10c00115 	stw	r3,4(r2)
   145f0:	003cbe06 	br	138ec <_gp+0xfffed830>
   145f4:	84001014 	ori	r16,r16,64
   145f8:	bc400007 	ldb	r17,0(r23)
   145fc:	003ce506 	br	13994 <_gp+0xfffed8d8>
   14600:	010000b4 	movhi	r4,2
   14604:	21357a04 	addi	r4,r4,-10776
   14608:	0039883a 	mov	fp,zero
   1460c:	d9003a15 	stw	r4,232(sp)
   14610:	04401e04 	movi	r17,120
   14614:	003f6906 	br	143bc <_gp+0xfffee300>
   14618:	8025883a 	mov	r18,r16
   1461c:	dc002903 	ldbu	r16,164(sp)
   14620:	e011883a 	mov	r8,fp
   14624:	84003fcc 	andi	r16,r16,255
   14628:	8005261e 	bne	r16,zero,15ac4 <___svfprintf_internal_r+0x2284>
   1462c:	883d6526 	beq	r17,zero,13bc4 <_gp+0xfffedb08>
   14630:	00c00044 	movi	r3,1
   14634:	d8c02915 	stw	r3,164(sp)
   14638:	dc401405 	stb	r17,80(sp)
   1463c:	d8002785 	stb	zero,158(sp)
   14640:	003f7a06 	br	1442c <_gp+0xfffee370>
   14644:	010000b4 	movhi	r4,2
   14648:	21357a04 	addi	r4,r4,-10776
   1464c:	d9003a15 	stw	r4,232(sp)
   14650:	d8c02e15 	stw	r3,184(sp)
   14654:	1025883a 	mov	r18,r2
   14658:	04401e04 	movi	r17,120
   1465c:	a584b03a 	or	r2,r20,r22
   14660:	1000fa1e 	bne	r2,zero,14a4c <___svfprintf_internal_r+0x120c>
   14664:	0039883a 	mov	fp,zero
   14668:	00800084 	movi	r2,2
   1466c:	10803fcc 	andi	r2,r2,255
   14670:	00c00044 	movi	r3,1
   14674:	10c21626 	beq	r2,r3,14ed0 <___svfprintf_internal_r+0x1690>
   14678:	00c00084 	movi	r3,2
   1467c:	10fe0e1e 	bne	r2,r3,13eb8 <_gp+0xfffeddfc>
   14680:	003d4606 	br	13b9c <_gp+0xfffedae0>
   14684:	d8c02017 	ldw	r3,128(sp)
   14688:	003e7306 	br	14058 <_gp+0xfffedf9c>
   1468c:	00801944 	movi	r2,101
   14690:	14407c0e 	bge	r2,r17,14884 <___svfprintf_internal_r+0x1044>
   14694:	d9003617 	ldw	r4,216(sp)
   14698:	d9403717 	ldw	r5,220(sp)
   1469c:	000d883a 	mov	r6,zero
   146a0:	000f883a 	mov	r7,zero
   146a4:	d8c03d15 	stw	r3,244(sp)
   146a8:	da003e15 	stw	r8,248(sp)
   146ac:	001c0a00 	call	1c0a0 <__eqdf2>
   146b0:	d8c03d17 	ldw	r3,244(sp)
   146b4:	da003e17 	ldw	r8,248(sp)
   146b8:	1000f51e 	bne	r2,zero,14a90 <___svfprintf_internal_r+0x1250>
   146bc:	d8801f17 	ldw	r2,124(sp)
   146c0:	010000b4 	movhi	r4,2
   146c4:	21358104 	addi	r4,r4,-10748
   146c8:	18c00044 	addi	r3,r3,1
   146cc:	10800044 	addi	r2,r2,1
   146d0:	41000015 	stw	r4,0(r8)
   146d4:	01000044 	movi	r4,1
   146d8:	41000115 	stw	r4,4(r8)
   146dc:	d8c02015 	stw	r3,128(sp)
   146e0:	d8801f15 	stw	r2,124(sp)
   146e4:	010001c4 	movi	r4,7
   146e8:	20826616 	blt	r4,r2,15084 <___svfprintf_internal_r+0x1844>
   146ec:	42000204 	addi	r8,r8,8
   146f0:	d8802617 	ldw	r2,152(sp)
   146f4:	d9403317 	ldw	r5,204(sp)
   146f8:	11400216 	blt	r2,r5,14704 <___svfprintf_internal_r+0xec4>
   146fc:	9080004c 	andi	r2,r18,1
   14700:	103eb326 	beq	r2,zero,141d0 <_gp+0xfffee114>
   14704:	d8803817 	ldw	r2,224(sp)
   14708:	d9003417 	ldw	r4,208(sp)
   1470c:	d9403817 	ldw	r5,224(sp)
   14710:	1887883a 	add	r3,r3,r2
   14714:	d8801f17 	ldw	r2,124(sp)
   14718:	41000015 	stw	r4,0(r8)
   1471c:	41400115 	stw	r5,4(r8)
   14720:	10800044 	addi	r2,r2,1
   14724:	d8c02015 	stw	r3,128(sp)
   14728:	d8801f15 	stw	r2,124(sp)
   1472c:	010001c4 	movi	r4,7
   14730:	2082af16 	blt	r4,r2,151f0 <___svfprintf_internal_r+0x19b0>
   14734:	42000204 	addi	r8,r8,8
   14738:	d8803317 	ldw	r2,204(sp)
   1473c:	143fffc4 	addi	r16,r2,-1
   14740:	043ea30e 	bge	zero,r16,141d0 <_gp+0xfffee114>
   14744:	04400404 	movi	r17,16
   14748:	d8801f17 	ldw	r2,124(sp)
   1474c:	8c00860e 	bge	r17,r16,14968 <___svfprintf_internal_r+0x1128>
   14750:	014000b4 	movhi	r5,2
   14754:	29758184 	addi	r5,r5,-10746
   14758:	d9402c15 	stw	r5,176(sp)
   1475c:	058001c4 	movi	r22,7
   14760:	dd002d17 	ldw	r20,180(sp)
   14764:	00000306 	br	14774 <___svfprintf_internal_r+0xf34>
   14768:	42000204 	addi	r8,r8,8
   1476c:	843ffc04 	addi	r16,r16,-16
   14770:	8c00800e 	bge	r17,r16,14974 <___svfprintf_internal_r+0x1134>
   14774:	18c00404 	addi	r3,r3,16
   14778:	10800044 	addi	r2,r2,1
   1477c:	45400015 	stw	r21,0(r8)
   14780:	44400115 	stw	r17,4(r8)
   14784:	d8c02015 	stw	r3,128(sp)
   14788:	d8801f15 	stw	r2,124(sp)
   1478c:	b0bff60e 	bge	r22,r2,14768 <_gp+0xfffee6ac>
   14790:	d9801e04 	addi	r6,sp,120
   14794:	a00b883a 	mov	r5,r20
   14798:	9809883a 	mov	r4,r19
   1479c:	0018e040 	call	18e04 <__ssprint_r>
   147a0:	103d0e1e 	bne	r2,zero,13bdc <_gp+0xfffedb20>
   147a4:	d8c02017 	ldw	r3,128(sp)
   147a8:	d8801f17 	ldw	r2,124(sp)
   147ac:	da000404 	addi	r8,sp,16
   147b0:	003fee06 	br	1476c <_gp+0xfffee6b0>
   147b4:	d9403117 	ldw	r5,196(sp)
   147b8:	d8802917 	ldw	r2,164(sp)
   147bc:	28adc83a 	sub	r22,r5,r2
   147c0:	05be430e 	bge	zero,r22,140d0 <_gp+0xfffee014>
   147c4:	07000404 	movi	fp,16
   147c8:	d8801f17 	ldw	r2,124(sp)
   147cc:	e583a20e 	bge	fp,r22,15658 <___svfprintf_internal_r+0x1e18>
   147d0:	014000b4 	movhi	r5,2
   147d4:	29758184 	addi	r5,r5,-10746
   147d8:	dc403015 	stw	r17,192(sp)
   147dc:	d9402c15 	stw	r5,176(sp)
   147e0:	b023883a 	mov	r17,r22
   147e4:	050001c4 	movi	r20,7
   147e8:	902d883a 	mov	r22,r18
   147ec:	8025883a 	mov	r18,r16
   147f0:	dc002d17 	ldw	r16,180(sp)
   147f4:	00000306 	br	14804 <___svfprintf_internal_r+0xfc4>
   147f8:	8c7ffc04 	addi	r17,r17,-16
   147fc:	42000204 	addi	r8,r8,8
   14800:	e440110e 	bge	fp,r17,14848 <___svfprintf_internal_r+0x1008>
   14804:	18c00404 	addi	r3,r3,16
   14808:	10800044 	addi	r2,r2,1
   1480c:	45400015 	stw	r21,0(r8)
   14810:	47000115 	stw	fp,4(r8)
   14814:	d8c02015 	stw	r3,128(sp)
   14818:	d8801f15 	stw	r2,124(sp)
   1481c:	a0bff60e 	bge	r20,r2,147f8 <_gp+0xfffee73c>
   14820:	d9801e04 	addi	r6,sp,120
   14824:	800b883a 	mov	r5,r16
   14828:	9809883a 	mov	r4,r19
   1482c:	0018e040 	call	18e04 <__ssprint_r>
   14830:	103cea1e 	bne	r2,zero,13bdc <_gp+0xfffedb20>
   14834:	8c7ffc04 	addi	r17,r17,-16
   14838:	d8c02017 	ldw	r3,128(sp)
   1483c:	d8801f17 	ldw	r2,124(sp)
   14840:	da000404 	addi	r8,sp,16
   14844:	e47fef16 	blt	fp,r17,14804 <_gp+0xfffee748>
   14848:	9021883a 	mov	r16,r18
   1484c:	b025883a 	mov	r18,r22
   14850:	882d883a 	mov	r22,r17
   14854:	dc403017 	ldw	r17,192(sp)
   14858:	d9002c17 	ldw	r4,176(sp)
   1485c:	1d87883a 	add	r3,r3,r22
   14860:	10800044 	addi	r2,r2,1
   14864:	41000015 	stw	r4,0(r8)
   14868:	45800115 	stw	r22,4(r8)
   1486c:	d8c02015 	stw	r3,128(sp)
   14870:	d8801f15 	stw	r2,124(sp)
   14874:	010001c4 	movi	r4,7
   14878:	20819a16 	blt	r4,r2,14ee4 <___svfprintf_internal_r+0x16a4>
   1487c:	42000204 	addi	r8,r8,8
   14880:	003e1306 	br	140d0 <_gp+0xfffee014>
   14884:	d9403317 	ldw	r5,204(sp)
   14888:	00800044 	movi	r2,1
   1488c:	18c00044 	addi	r3,r3,1
   14890:	1141710e 	bge	r2,r5,14e58 <___svfprintf_internal_r+0x1618>
   14894:	dc401f17 	ldw	r17,124(sp)
   14898:	00800044 	movi	r2,1
   1489c:	40800115 	stw	r2,4(r8)
   148a0:	8c400044 	addi	r17,r17,1
   148a4:	44000015 	stw	r16,0(r8)
   148a8:	d8c02015 	stw	r3,128(sp)
   148ac:	dc401f15 	stw	r17,124(sp)
   148b0:	008001c4 	movi	r2,7
   148b4:	14417416 	blt	r2,r17,14e88 <___svfprintf_internal_r+0x1648>
   148b8:	42000204 	addi	r8,r8,8
   148bc:	d8803817 	ldw	r2,224(sp)
   148c0:	d9003417 	ldw	r4,208(sp)
   148c4:	8c400044 	addi	r17,r17,1
   148c8:	10c7883a 	add	r3,r2,r3
   148cc:	40800115 	stw	r2,4(r8)
   148d0:	41000015 	stw	r4,0(r8)
   148d4:	d8c02015 	stw	r3,128(sp)
   148d8:	dc401f15 	stw	r17,124(sp)
   148dc:	008001c4 	movi	r2,7
   148e0:	14417216 	blt	r2,r17,14eac <___svfprintf_internal_r+0x166c>
   148e4:	45800204 	addi	r22,r8,8
   148e8:	d9003617 	ldw	r4,216(sp)
   148ec:	d9403717 	ldw	r5,220(sp)
   148f0:	000d883a 	mov	r6,zero
   148f4:	000f883a 	mov	r7,zero
   148f8:	d8c03d15 	stw	r3,244(sp)
   148fc:	001c0a00 	call	1c0a0 <__eqdf2>
   14900:	d8c03d17 	ldw	r3,244(sp)
   14904:	1000b326 	beq	r2,zero,14bd4 <___svfprintf_internal_r+0x1394>
   14908:	d9403317 	ldw	r5,204(sp)
   1490c:	84000044 	addi	r16,r16,1
   14910:	8c400044 	addi	r17,r17,1
   14914:	28bfffc4 	addi	r2,r5,-1
   14918:	1887883a 	add	r3,r3,r2
   1491c:	b0800115 	stw	r2,4(r22)
   14920:	b4000015 	stw	r16,0(r22)
   14924:	d8c02015 	stw	r3,128(sp)
   14928:	dc401f15 	stw	r17,124(sp)
   1492c:	008001c4 	movi	r2,7
   14930:	1440d216 	blt	r2,r17,14c7c <___svfprintf_internal_r+0x143c>
   14934:	b5800204 	addi	r22,r22,8
   14938:	d9003b17 	ldw	r4,236(sp)
   1493c:	df0022c4 	addi	fp,sp,139
   14940:	8c400044 	addi	r17,r17,1
   14944:	20c7883a 	add	r3,r4,r3
   14948:	b7000015 	stw	fp,0(r22)
   1494c:	b1000115 	stw	r4,4(r22)
   14950:	d8c02015 	stw	r3,128(sp)
   14954:	dc401f15 	stw	r17,124(sp)
   14958:	008001c4 	movi	r2,7
   1495c:	14400e16 	blt	r2,r17,14998 <___svfprintf_internal_r+0x1158>
   14960:	b2000204 	addi	r8,r22,8
   14964:	003e1a06 	br	141d0 <_gp+0xfffee114>
   14968:	010000b4 	movhi	r4,2
   1496c:	21358184 	addi	r4,r4,-10746
   14970:	d9002c15 	stw	r4,176(sp)
   14974:	d9002c17 	ldw	r4,176(sp)
   14978:	1c07883a 	add	r3,r3,r16
   1497c:	44000115 	stw	r16,4(r8)
   14980:	41000015 	stw	r4,0(r8)
   14984:	10800044 	addi	r2,r2,1
   14988:	d8c02015 	stw	r3,128(sp)
   1498c:	d8801f15 	stw	r2,124(sp)
   14990:	010001c4 	movi	r4,7
   14994:	20be0d0e 	bge	r4,r2,141cc <_gp+0xfffee110>
   14998:	d9402d17 	ldw	r5,180(sp)
   1499c:	d9801e04 	addi	r6,sp,120
   149a0:	9809883a 	mov	r4,r19
   149a4:	0018e040 	call	18e04 <__ssprint_r>
   149a8:	103c8c1e 	bne	r2,zero,13bdc <_gp+0xfffedb20>
   149ac:	d8c02017 	ldw	r3,128(sp)
   149b0:	da000404 	addi	r8,sp,16
   149b4:	003e0606 	br	141d0 <_gp+0xfffee114>
   149b8:	d9402d17 	ldw	r5,180(sp)
   149bc:	d9801e04 	addi	r6,sp,120
   149c0:	9809883a 	mov	r4,r19
   149c4:	0018e040 	call	18e04 <__ssprint_r>
   149c8:	103e3d26 	beq	r2,zero,142c0 <_gp+0xfffee204>
   149cc:	003c8306 	br	13bdc <_gp+0xfffedb20>
   149d0:	d9402d17 	ldw	r5,180(sp)
   149d4:	d9801e04 	addi	r6,sp,120
   149d8:	9809883a 	mov	r4,r19
   149dc:	0018e040 	call	18e04 <__ssprint_r>
   149e0:	103c7e1e 	bne	r2,zero,13bdc <_gp+0xfffedb20>
   149e4:	d8c02017 	ldw	r3,128(sp)
   149e8:	da000404 	addi	r8,sp,16
   149ec:	003deb06 	br	1419c <_gp+0xfffee0e0>
   149f0:	d9402d17 	ldw	r5,180(sp)
   149f4:	d9801e04 	addi	r6,sp,120
   149f8:	9809883a 	mov	r4,r19
   149fc:	0018e040 	call	18e04 <__ssprint_r>
   14a00:	103c761e 	bne	r2,zero,13bdc <_gp+0xfffedb20>
   14a04:	d8c02017 	ldw	r3,128(sp)
   14a08:	da000404 	addi	r8,sp,16
   14a0c:	003d9f06 	br	1408c <_gp+0xfffedfd0>
   14a10:	d9402d17 	ldw	r5,180(sp)
   14a14:	d9801e04 	addi	r6,sp,120
   14a18:	9809883a 	mov	r4,r19
   14a1c:	0018e040 	call	18e04 <__ssprint_r>
   14a20:	103c6e1e 	bne	r2,zero,13bdc <_gp+0xfffedb20>
   14a24:	d8c02017 	ldw	r3,128(sp)
   14a28:	da000404 	addi	r8,sp,16
   14a2c:	003da506 	br	140c4 <_gp+0xfffee008>
   14a30:	d9402a17 	ldw	r5,168(sp)
   14a34:	d8002785 	stb	zero,158(sp)
   14a38:	283f0816 	blt	r5,zero,1465c <_gp+0xfffee5a0>
   14a3c:	00ffdfc4 	movi	r3,-129
   14a40:	a584b03a 	or	r2,r20,r22
   14a44:	90e4703a 	and	r18,r18,r3
   14a48:	103c5126 	beq	r2,zero,13b90 <_gp+0xfffedad4>
   14a4c:	0039883a 	mov	fp,zero
   14a50:	003e5a06 	br	143bc <_gp+0xfffee300>
   14a54:	9080040c 	andi	r2,r18,16
   14a58:	10013d26 	beq	r2,zero,14f50 <___svfprintf_internal_r+0x1710>
   14a5c:	d8c02e17 	ldw	r3,184(sp)
   14a60:	d9002a17 	ldw	r4,168(sp)
   14a64:	d8002785 	stb	zero,158(sp)
   14a68:	18800104 	addi	r2,r3,4
   14a6c:	1d000017 	ldw	r20,0(r3)
   14a70:	002d883a 	mov	r22,zero
   14a74:	20013f16 	blt	r4,zero,14f74 <___svfprintf_internal_r+0x1734>
   14a78:	00ffdfc4 	movi	r3,-129
   14a7c:	d8802e15 	stw	r2,184(sp)
   14a80:	90e4703a 	and	r18,r18,r3
   14a84:	a03d0926 	beq	r20,zero,13eac <_gp+0xfffeddf0>
   14a88:	0039883a 	mov	fp,zero
   14a8c:	003d0c06 	br	13ec0 <_gp+0xfffede04>
   14a90:	dc402617 	ldw	r17,152(sp)
   14a94:	0441830e 	bge	zero,r17,150a4 <___svfprintf_internal_r+0x1864>
   14a98:	dc403217 	ldw	r17,200(sp)
   14a9c:	d8803317 	ldw	r2,204(sp)
   14aa0:	1440010e 	bge	r2,r17,14aa8 <___svfprintf_internal_r+0x1268>
   14aa4:	1023883a 	mov	r17,r2
   14aa8:	04400a0e 	bge	zero,r17,14ad4 <___svfprintf_internal_r+0x1294>
   14aac:	d8801f17 	ldw	r2,124(sp)
   14ab0:	1c47883a 	add	r3,r3,r17
   14ab4:	44000015 	stw	r16,0(r8)
   14ab8:	10800044 	addi	r2,r2,1
   14abc:	44400115 	stw	r17,4(r8)
   14ac0:	d8c02015 	stw	r3,128(sp)
   14ac4:	d8801f15 	stw	r2,124(sp)
   14ac8:	010001c4 	movi	r4,7
   14acc:	20827516 	blt	r4,r2,154a4 <___svfprintf_internal_r+0x1c64>
   14ad0:	42000204 	addi	r8,r8,8
   14ad4:	88027b16 	blt	r17,zero,154c4 <___svfprintf_internal_r+0x1c84>
   14ad8:	d9003217 	ldw	r4,200(sp)
   14adc:	2463c83a 	sub	r17,r4,r17
   14ae0:	0440990e 	bge	zero,r17,14d48 <___svfprintf_internal_r+0x1508>
   14ae4:	05800404 	movi	r22,16
   14ae8:	d8801f17 	ldw	r2,124(sp)
   14aec:	b441530e 	bge	r22,r17,1503c <___svfprintf_internal_r+0x17fc>
   14af0:	010000b4 	movhi	r4,2
   14af4:	21358184 	addi	r4,r4,-10746
   14af8:	d9002c15 	stw	r4,176(sp)
   14afc:	070001c4 	movi	fp,7
   14b00:	dd002d17 	ldw	r20,180(sp)
   14b04:	00000306 	br	14b14 <___svfprintf_internal_r+0x12d4>
   14b08:	42000204 	addi	r8,r8,8
   14b0c:	8c7ffc04 	addi	r17,r17,-16
   14b10:	b4414d0e 	bge	r22,r17,15048 <___svfprintf_internal_r+0x1808>
   14b14:	18c00404 	addi	r3,r3,16
   14b18:	10800044 	addi	r2,r2,1
   14b1c:	45400015 	stw	r21,0(r8)
   14b20:	45800115 	stw	r22,4(r8)
   14b24:	d8c02015 	stw	r3,128(sp)
   14b28:	d8801f15 	stw	r2,124(sp)
   14b2c:	e0bff60e 	bge	fp,r2,14b08 <_gp+0xfffeea4c>
   14b30:	d9801e04 	addi	r6,sp,120
   14b34:	a00b883a 	mov	r5,r20
   14b38:	9809883a 	mov	r4,r19
   14b3c:	0018e040 	call	18e04 <__ssprint_r>
   14b40:	103c261e 	bne	r2,zero,13bdc <_gp+0xfffedb20>
   14b44:	d8c02017 	ldw	r3,128(sp)
   14b48:	d8801f17 	ldw	r2,124(sp)
   14b4c:	da000404 	addi	r8,sp,16
   14b50:	003fee06 	br	14b0c <_gp+0xfffeea50>
   14b54:	d9402d17 	ldw	r5,180(sp)
   14b58:	d9801e04 	addi	r6,sp,120
   14b5c:	9809883a 	mov	r4,r19
   14b60:	0018e040 	call	18e04 <__ssprint_r>
   14b64:	103c1d1e 	bne	r2,zero,13bdc <_gp+0xfffedb20>
   14b68:	d8c02017 	ldw	r3,128(sp)
   14b6c:	df002787 	ldb	fp,158(sp)
   14b70:	da000404 	addi	r8,sp,16
   14b74:	003d3806 	br	14058 <_gp+0xfffedf9c>
   14b78:	9080040c 	andi	r2,r18,16
   14b7c:	10005c26 	beq	r2,zero,14cf0 <___svfprintf_internal_r+0x14b0>
   14b80:	d8c02e17 	ldw	r3,184(sp)
   14b84:	d9002a17 	ldw	r4,168(sp)
   14b88:	d8002785 	stb	zero,158(sp)
   14b8c:	18800104 	addi	r2,r3,4
   14b90:	1d000017 	ldw	r20,0(r3)
   14b94:	002d883a 	mov	r22,zero
   14b98:	20005e16 	blt	r4,zero,14d14 <___svfprintf_internal_r+0x14d4>
   14b9c:	00ffdfc4 	movi	r3,-129
   14ba0:	d8802e15 	stw	r2,184(sp)
   14ba4:	90e4703a 	and	r18,r18,r3
   14ba8:	0039883a 	mov	fp,zero
   14bac:	a03ddf26 	beq	r20,zero,1432c <_gp+0xfffee270>
   14bb0:	00800244 	movi	r2,9
   14bb4:	153c8e36 	bltu	r2,r20,13df0 <_gp+0xfffedd34>
   14bb8:	a5000c04 	addi	r20,r20,48
   14bbc:	dc001dc4 	addi	r16,sp,119
   14bc0:	dd001dc5 	stb	r20,119(sp)
   14bc4:	d8c02817 	ldw	r3,160(sp)
   14bc8:	1c07c83a 	sub	r3,r3,r16
   14bcc:	d8c02b15 	stw	r3,172(sp)
   14bd0:	003cd306 	br	13f20 <_gp+0xfffede64>
   14bd4:	d8803317 	ldw	r2,204(sp)
   14bd8:	143fffc4 	addi	r16,r2,-1
   14bdc:	043f560e 	bge	zero,r16,14938 <_gp+0xfffee87c>
   14be0:	07000404 	movi	fp,16
   14be4:	e403530e 	bge	fp,r16,15934 <___svfprintf_internal_r+0x20f4>
   14be8:	014000b4 	movhi	r5,2
   14bec:	29758184 	addi	r5,r5,-10746
   14bf0:	d9402c15 	stw	r5,176(sp)
   14bf4:	01c001c4 	movi	r7,7
   14bf8:	dd002d17 	ldw	r20,180(sp)
   14bfc:	00000306 	br	14c0c <___svfprintf_internal_r+0x13cc>
   14c00:	843ffc04 	addi	r16,r16,-16
   14c04:	b5800204 	addi	r22,r22,8
   14c08:	e400130e 	bge	fp,r16,14c58 <___svfprintf_internal_r+0x1418>
   14c0c:	18c00404 	addi	r3,r3,16
   14c10:	8c400044 	addi	r17,r17,1
   14c14:	b5400015 	stw	r21,0(r22)
   14c18:	b7000115 	stw	fp,4(r22)
   14c1c:	d8c02015 	stw	r3,128(sp)
   14c20:	dc401f15 	stw	r17,124(sp)
   14c24:	3c7ff60e 	bge	r7,r17,14c00 <_gp+0xfffeeb44>
   14c28:	d9801e04 	addi	r6,sp,120
   14c2c:	a00b883a 	mov	r5,r20
   14c30:	9809883a 	mov	r4,r19
   14c34:	d9c03d15 	stw	r7,244(sp)
   14c38:	0018e040 	call	18e04 <__ssprint_r>
   14c3c:	d9c03d17 	ldw	r7,244(sp)
   14c40:	103be61e 	bne	r2,zero,13bdc <_gp+0xfffedb20>
   14c44:	843ffc04 	addi	r16,r16,-16
   14c48:	d8c02017 	ldw	r3,128(sp)
   14c4c:	dc401f17 	ldw	r17,124(sp)
   14c50:	dd800404 	addi	r22,sp,16
   14c54:	e43fed16 	blt	fp,r16,14c0c <_gp+0xfffeeb50>
   14c58:	d8802c17 	ldw	r2,176(sp)
   14c5c:	1c07883a 	add	r3,r3,r16
   14c60:	8c400044 	addi	r17,r17,1
   14c64:	b0800015 	stw	r2,0(r22)
   14c68:	b4000115 	stw	r16,4(r22)
   14c6c:	d8c02015 	stw	r3,128(sp)
   14c70:	dc401f15 	stw	r17,124(sp)
   14c74:	008001c4 	movi	r2,7
   14c78:	147f2e0e 	bge	r2,r17,14934 <_gp+0xfffee878>
   14c7c:	d9402d17 	ldw	r5,180(sp)
   14c80:	d9801e04 	addi	r6,sp,120
   14c84:	9809883a 	mov	r4,r19
   14c88:	0018e040 	call	18e04 <__ssprint_r>
   14c8c:	103bd31e 	bne	r2,zero,13bdc <_gp+0xfffedb20>
   14c90:	d8c02017 	ldw	r3,128(sp)
   14c94:	dc401f17 	ldw	r17,124(sp)
   14c98:	dd800404 	addi	r22,sp,16
   14c9c:	003f2606 	br	14938 <_gp+0xfffee87c>
   14ca0:	9080040c 	andi	r2,r18,16
   14ca4:	1000c326 	beq	r2,zero,14fb4 <___svfprintf_internal_r+0x1774>
   14ca8:	d9402e17 	ldw	r5,184(sp)
   14cac:	2d000017 	ldw	r20,0(r5)
   14cb0:	29400104 	addi	r5,r5,4
   14cb4:	d9402e15 	stw	r5,184(sp)
   14cb8:	a02dd7fa 	srai	r22,r20,31
   14cbc:	b005883a 	mov	r2,r22
   14cc0:	103c430e 	bge	r2,zero,13dd0 <_gp+0xfffedd14>
   14cc4:	d9402a17 	ldw	r5,168(sp)
   14cc8:	0529c83a 	sub	r20,zero,r20
   14ccc:	07000b44 	movi	fp,45
   14cd0:	a004c03a 	cmpne	r2,r20,zero
   14cd4:	05adc83a 	sub	r22,zero,r22
   14cd8:	df002785 	stb	fp,158(sp)
   14cdc:	b0adc83a 	sub	r22,r22,r2
   14ce0:	28022e16 	blt	r5,zero,1559c <___svfprintf_internal_r+0x1d5c>
   14ce4:	00bfdfc4 	movi	r2,-129
   14ce8:	90a4703a 	and	r18,r18,r2
   14cec:	003c3f06 	br	13dec <_gp+0xfffedd30>
   14cf0:	9080100c 	andi	r2,r18,64
   14cf4:	d8002785 	stb	zero,158(sp)
   14cf8:	10012526 	beq	r2,zero,15190 <___svfprintf_internal_r+0x1950>
   14cfc:	d9402e17 	ldw	r5,184(sp)
   14d00:	d8c02a17 	ldw	r3,168(sp)
   14d04:	002d883a 	mov	r22,zero
   14d08:	28800104 	addi	r2,r5,4
   14d0c:	2d00000b 	ldhu	r20,0(r5)
   14d10:	183fa20e 	bge	r3,zero,14b9c <_gp+0xfffeeae0>
   14d14:	d8802e15 	stw	r2,184(sp)
   14d18:	0039883a 	mov	fp,zero
   14d1c:	a584b03a 	or	r2,r20,r22
   14d20:	103c321e 	bne	r2,zero,13dec <_gp+0xfffedd30>
   14d24:	00800044 	movi	r2,1
   14d28:	003e5006 	br	1466c <_gp+0xfffee5b0>
   14d2c:	d9402d17 	ldw	r5,180(sp)
   14d30:	d9801e04 	addi	r6,sp,120
   14d34:	9809883a 	mov	r4,r19
   14d38:	0018e040 	call	18e04 <__ssprint_r>
   14d3c:	103ba71e 	bne	r2,zero,13bdc <_gp+0xfffedb20>
   14d40:	d8c02017 	ldw	r3,128(sp)
   14d44:	da000404 	addi	r8,sp,16
   14d48:	d9003217 	ldw	r4,200(sp)
   14d4c:	d8802617 	ldw	r2,152(sp)
   14d50:	d9403317 	ldw	r5,204(sp)
   14d54:	8123883a 	add	r17,r16,r4
   14d58:	11400216 	blt	r2,r5,14d64 <___svfprintf_internal_r+0x1524>
   14d5c:	9100004c 	andi	r4,r18,1
   14d60:	20000d26 	beq	r4,zero,14d98 <___svfprintf_internal_r+0x1558>
   14d64:	d9003817 	ldw	r4,224(sp)
   14d68:	d9403417 	ldw	r5,208(sp)
   14d6c:	1907883a 	add	r3,r3,r4
   14d70:	d9001f17 	ldw	r4,124(sp)
   14d74:	41400015 	stw	r5,0(r8)
   14d78:	d9403817 	ldw	r5,224(sp)
   14d7c:	21000044 	addi	r4,r4,1
   14d80:	d8c02015 	stw	r3,128(sp)
   14d84:	41400115 	stw	r5,4(r8)
   14d88:	d9001f15 	stw	r4,124(sp)
   14d8c:	014001c4 	movi	r5,7
   14d90:	2901dc16 	blt	r5,r4,15504 <___svfprintf_internal_r+0x1cc4>
   14d94:	42000204 	addi	r8,r8,8
   14d98:	d9003317 	ldw	r4,204(sp)
   14d9c:	8121883a 	add	r16,r16,r4
   14da0:	2085c83a 	sub	r2,r4,r2
   14da4:	8461c83a 	sub	r16,r16,r17
   14da8:	1400010e 	bge	r2,r16,14db0 <___svfprintf_internal_r+0x1570>
   14dac:	1021883a 	mov	r16,r2
   14db0:	04000a0e 	bge	zero,r16,14ddc <___svfprintf_internal_r+0x159c>
   14db4:	d9001f17 	ldw	r4,124(sp)
   14db8:	1c07883a 	add	r3,r3,r16
   14dbc:	44400015 	stw	r17,0(r8)
   14dc0:	21000044 	addi	r4,r4,1
   14dc4:	44000115 	stw	r16,4(r8)
   14dc8:	d8c02015 	stw	r3,128(sp)
   14dcc:	d9001f15 	stw	r4,124(sp)
   14dd0:	014001c4 	movi	r5,7
   14dd4:	2901e616 	blt	r5,r4,15570 <___svfprintf_internal_r+0x1d30>
   14dd8:	42000204 	addi	r8,r8,8
   14ddc:	8001f616 	blt	r16,zero,155b8 <___svfprintf_internal_r+0x1d78>
   14de0:	1421c83a 	sub	r16,r2,r16
   14de4:	043cfa0e 	bge	zero,r16,141d0 <_gp+0xfffee114>
   14de8:	04400404 	movi	r17,16
   14dec:	d8801f17 	ldw	r2,124(sp)
   14df0:	8c3edd0e 	bge	r17,r16,14968 <_gp+0xfffee8ac>
   14df4:	014000b4 	movhi	r5,2
   14df8:	29758184 	addi	r5,r5,-10746
   14dfc:	d9402c15 	stw	r5,176(sp)
   14e00:	058001c4 	movi	r22,7
   14e04:	dd002d17 	ldw	r20,180(sp)
   14e08:	00000306 	br	14e18 <___svfprintf_internal_r+0x15d8>
   14e0c:	42000204 	addi	r8,r8,8
   14e10:	843ffc04 	addi	r16,r16,-16
   14e14:	8c3ed70e 	bge	r17,r16,14974 <_gp+0xfffee8b8>
   14e18:	18c00404 	addi	r3,r3,16
   14e1c:	10800044 	addi	r2,r2,1
   14e20:	45400015 	stw	r21,0(r8)
   14e24:	44400115 	stw	r17,4(r8)
   14e28:	d8c02015 	stw	r3,128(sp)
   14e2c:	d8801f15 	stw	r2,124(sp)
   14e30:	b0bff60e 	bge	r22,r2,14e0c <_gp+0xfffeed50>
   14e34:	d9801e04 	addi	r6,sp,120
   14e38:	a00b883a 	mov	r5,r20
   14e3c:	9809883a 	mov	r4,r19
   14e40:	0018e040 	call	18e04 <__ssprint_r>
   14e44:	103b651e 	bne	r2,zero,13bdc <_gp+0xfffedb20>
   14e48:	d8c02017 	ldw	r3,128(sp)
   14e4c:	d8801f17 	ldw	r2,124(sp)
   14e50:	da000404 	addi	r8,sp,16
   14e54:	003fee06 	br	14e10 <_gp+0xfffeed54>
   14e58:	9088703a 	and	r4,r18,r2
   14e5c:	203e8d1e 	bne	r4,zero,14894 <_gp+0xfffee7d8>
   14e60:	dc401f17 	ldw	r17,124(sp)
   14e64:	40800115 	stw	r2,4(r8)
   14e68:	44000015 	stw	r16,0(r8)
   14e6c:	8c400044 	addi	r17,r17,1
   14e70:	d8c02015 	stw	r3,128(sp)
   14e74:	dc401f15 	stw	r17,124(sp)
   14e78:	008001c4 	movi	r2,7
   14e7c:	147f7f16 	blt	r2,r17,14c7c <_gp+0xfffeebc0>
   14e80:	45800204 	addi	r22,r8,8
   14e84:	003eac06 	br	14938 <_gp+0xfffee87c>
   14e88:	d9402d17 	ldw	r5,180(sp)
   14e8c:	d9801e04 	addi	r6,sp,120
   14e90:	9809883a 	mov	r4,r19
   14e94:	0018e040 	call	18e04 <__ssprint_r>
   14e98:	103b501e 	bne	r2,zero,13bdc <_gp+0xfffedb20>
   14e9c:	d8c02017 	ldw	r3,128(sp)
   14ea0:	dc401f17 	ldw	r17,124(sp)
   14ea4:	da000404 	addi	r8,sp,16
   14ea8:	003e8406 	br	148bc <_gp+0xfffee800>
   14eac:	d9402d17 	ldw	r5,180(sp)
   14eb0:	d9801e04 	addi	r6,sp,120
   14eb4:	9809883a 	mov	r4,r19
   14eb8:	0018e040 	call	18e04 <__ssprint_r>
   14ebc:	103b471e 	bne	r2,zero,13bdc <_gp+0xfffedb20>
   14ec0:	d8c02017 	ldw	r3,128(sp)
   14ec4:	dc401f17 	ldw	r17,124(sp)
   14ec8:	dd800404 	addi	r22,sp,16
   14ecc:	003e8606 	br	148e8 <_gp+0xfffee82c>
   14ed0:	0029883a 	mov	r20,zero
   14ed4:	a5000c04 	addi	r20,r20,48
   14ed8:	dc001dc4 	addi	r16,sp,119
   14edc:	dd001dc5 	stb	r20,119(sp)
   14ee0:	003f3806 	br	14bc4 <_gp+0xfffeeb08>
   14ee4:	d9402d17 	ldw	r5,180(sp)
   14ee8:	d9801e04 	addi	r6,sp,120
   14eec:	9809883a 	mov	r4,r19
   14ef0:	0018e040 	call	18e04 <__ssprint_r>
   14ef4:	103b391e 	bne	r2,zero,13bdc <_gp+0xfffedb20>
   14ef8:	d8c02017 	ldw	r3,128(sp)
   14efc:	da000404 	addi	r8,sp,16
   14f00:	003c7306 	br	140d0 <_gp+0xfffee014>
   14f04:	d9003617 	ldw	r4,216(sp)
   14f08:	d9403717 	ldw	r5,220(sp)
   14f0c:	da003e15 	stw	r8,248(sp)
   14f10:	0018c1c0 	call	18c1c <__fpclassifyd>
   14f14:	da003e17 	ldw	r8,248(sp)
   14f18:	1000bd1e 	bne	r2,zero,15210 <___svfprintf_internal_r+0x19d0>
   14f1c:	008011c4 	movi	r2,71
   14f20:	14411e0e 	bge	r2,r17,1539c <___svfprintf_internal_r+0x1b5c>
   14f24:	040000b4 	movhi	r16,2
   14f28:	84357404 	addi	r16,r16,-10800
   14f2c:	00c000c4 	movi	r3,3
   14f30:	00bfdfc4 	movi	r2,-129
   14f34:	d8c02915 	stw	r3,164(sp)
   14f38:	90a4703a 	and	r18,r18,r2
   14f3c:	df002783 	ldbu	fp,158(sp)
   14f40:	d8c02b15 	stw	r3,172(sp)
   14f44:	d8002a15 	stw	zero,168(sp)
   14f48:	d8003215 	stw	zero,200(sp)
   14f4c:	003bfa06 	br	13f38 <_gp+0xfffede7c>
   14f50:	9080100c 	andi	r2,r18,64
   14f54:	d8002785 	stb	zero,158(sp)
   14f58:	10009426 	beq	r2,zero,151ac <___svfprintf_internal_r+0x196c>
   14f5c:	d9402e17 	ldw	r5,184(sp)
   14f60:	d8c02a17 	ldw	r3,168(sp)
   14f64:	002d883a 	mov	r22,zero
   14f68:	28800104 	addi	r2,r5,4
   14f6c:	2d00000b 	ldhu	r20,0(r5)
   14f70:	183ec10e 	bge	r3,zero,14a78 <_gp+0xfffee9bc>
   14f74:	a586b03a 	or	r3,r20,r22
   14f78:	d8802e15 	stw	r2,184(sp)
   14f7c:	183ec21e 	bne	r3,zero,14a88 <_gp+0xfffee9cc>
   14f80:	0039883a 	mov	fp,zero
   14f84:	0005883a 	mov	r2,zero
   14f88:	003db806 	br	1466c <_gp+0xfffee5b0>
   14f8c:	d8c02e17 	ldw	r3,184(sp)
   14f90:	d9002e17 	ldw	r4,184(sp)
   14f94:	d9402e17 	ldw	r5,184(sp)
   14f98:	18c00017 	ldw	r3,0(r3)
   14f9c:	21000117 	ldw	r4,4(r4)
   14fa0:	29400204 	addi	r5,r5,8
   14fa4:	d8c03615 	stw	r3,216(sp)
   14fa8:	d9003715 	stw	r4,220(sp)
   14fac:	d9402e15 	stw	r5,184(sp)
   14fb0:	003b5a06 	br	13d1c <_gp+0xfffedc60>
   14fb4:	9080100c 	andi	r2,r18,64
   14fb8:	10010726 	beq	r2,zero,153d8 <___svfprintf_internal_r+0x1b98>
   14fbc:	d8802e17 	ldw	r2,184(sp)
   14fc0:	1500000f 	ldh	r20,0(r2)
   14fc4:	10800104 	addi	r2,r2,4
   14fc8:	d8802e15 	stw	r2,184(sp)
   14fcc:	a02dd7fa 	srai	r22,r20,31
   14fd0:	b005883a 	mov	r2,r22
   14fd4:	003b7d06 	br	13dcc <_gp+0xfffedd10>
   14fd8:	9080100c 	andi	r2,r18,64
   14fdc:	10010526 	beq	r2,zero,153f4 <___svfprintf_internal_r+0x1bb4>
   14fe0:	d8c02e17 	ldw	r3,184(sp)
   14fe4:	002d883a 	mov	r22,zero
   14fe8:	1d00000b 	ldhu	r20,0(r3)
   14fec:	18c00104 	addi	r3,r3,4
   14ff0:	d8c02e15 	stw	r3,184(sp)
   14ff4:	003ce206 	br	14380 <_gp+0xfffee2c4>
   14ff8:	bc400007 	ldb	r17,0(r23)
   14ffc:	003a6506 	br	13994 <_gp+0xfffed8d8>
   15000:	9080040c 	andi	r2,r18,16
   15004:	10010126 	beq	r2,zero,1540c <___svfprintf_internal_r+0x1bcc>
   15008:	d8c02e17 	ldw	r3,184(sp)
   1500c:	d9002f17 	ldw	r4,188(sp)
   15010:	18800017 	ldw	r2,0(r3)
   15014:	18c00104 	addi	r3,r3,4
   15018:	d8c02e15 	stw	r3,184(sp)
   1501c:	11000015 	stw	r4,0(r2)
   15020:	003a3206 	br	138ec <_gp+0xfffed830>
   15024:	d9002a17 	ldw	r4,168(sp)
   15028:	d8002785 	stb	zero,158(sp)
   1502c:	203d8d16 	blt	r4,zero,14664 <_gp+0xfffee5a8>
   15030:	00bfdfc4 	movi	r2,-129
   15034:	90a4703a 	and	r18,r18,r2
   15038:	003ad506 	br	13b90 <_gp+0xfffedad4>
   1503c:	014000b4 	movhi	r5,2
   15040:	29758184 	addi	r5,r5,-10746
   15044:	d9402c15 	stw	r5,176(sp)
   15048:	d9402c17 	ldw	r5,176(sp)
   1504c:	1c47883a 	add	r3,r3,r17
   15050:	10800044 	addi	r2,r2,1
   15054:	41400015 	stw	r5,0(r8)
   15058:	44400115 	stw	r17,4(r8)
   1505c:	d8c02015 	stw	r3,128(sp)
   15060:	d8801f15 	stw	r2,124(sp)
   15064:	010001c4 	movi	r4,7
   15068:	20bf3016 	blt	r4,r2,14d2c <_gp+0xfffeec70>
   1506c:	42000204 	addi	r8,r8,8
   15070:	003f3506 	br	14d48 <_gp+0xfffeec8c>
   15074:	010000b4 	movhi	r4,2
   15078:	21358184 	addi	r4,r4,-10746
   1507c:	d9002c15 	stw	r4,176(sp)
   15080:	003c3c06 	br	14174 <_gp+0xfffee0b8>
   15084:	d9402d17 	ldw	r5,180(sp)
   15088:	d9801e04 	addi	r6,sp,120
   1508c:	9809883a 	mov	r4,r19
   15090:	0018e040 	call	18e04 <__ssprint_r>
   15094:	103ad11e 	bne	r2,zero,13bdc <_gp+0xfffedb20>
   15098:	d8c02017 	ldw	r3,128(sp)
   1509c:	da000404 	addi	r8,sp,16
   150a0:	003d9306 	br	146f0 <_gp+0xfffee634>
   150a4:	d8801f17 	ldw	r2,124(sp)
   150a8:	014000b4 	movhi	r5,2
   150ac:	01000044 	movi	r4,1
   150b0:	18c00044 	addi	r3,r3,1
   150b4:	10800044 	addi	r2,r2,1
   150b8:	29758104 	addi	r5,r5,-10748
   150bc:	41000115 	stw	r4,4(r8)
   150c0:	41400015 	stw	r5,0(r8)
   150c4:	d8c02015 	stw	r3,128(sp)
   150c8:	d8801f15 	stw	r2,124(sp)
   150cc:	010001c4 	movi	r4,7
   150d0:	2080b516 	blt	r4,r2,153a8 <___svfprintf_internal_r+0x1b68>
   150d4:	42000204 	addi	r8,r8,8
   150d8:	8800041e 	bne	r17,zero,150ec <___svfprintf_internal_r+0x18ac>
   150dc:	d8803317 	ldw	r2,204(sp)
   150e0:	1000021e 	bne	r2,zero,150ec <___svfprintf_internal_r+0x18ac>
   150e4:	9080004c 	andi	r2,r18,1
   150e8:	103c3926 	beq	r2,zero,141d0 <_gp+0xfffee114>
   150ec:	d9003817 	ldw	r4,224(sp)
   150f0:	d8801f17 	ldw	r2,124(sp)
   150f4:	d9403417 	ldw	r5,208(sp)
   150f8:	20c7883a 	add	r3,r4,r3
   150fc:	10800044 	addi	r2,r2,1
   15100:	41000115 	stw	r4,4(r8)
   15104:	41400015 	stw	r5,0(r8)
   15108:	d8c02015 	stw	r3,128(sp)
   1510c:	d8801f15 	stw	r2,124(sp)
   15110:	010001c4 	movi	r4,7
   15114:	20818016 	blt	r4,r2,15718 <___svfprintf_internal_r+0x1ed8>
   15118:	42000204 	addi	r8,r8,8
   1511c:	0463c83a 	sub	r17,zero,r17
   15120:	0440cb0e 	bge	zero,r17,15450 <___svfprintf_internal_r+0x1c10>
   15124:	05800404 	movi	r22,16
   15128:	b440e80e 	bge	r22,r17,154cc <___svfprintf_internal_r+0x1c8c>
   1512c:	014000b4 	movhi	r5,2
   15130:	29758184 	addi	r5,r5,-10746
   15134:	d9402c15 	stw	r5,176(sp)
   15138:	070001c4 	movi	fp,7
   1513c:	dd002d17 	ldw	r20,180(sp)
   15140:	00000306 	br	15150 <___svfprintf_internal_r+0x1910>
   15144:	42000204 	addi	r8,r8,8
   15148:	8c7ffc04 	addi	r17,r17,-16
   1514c:	b440e20e 	bge	r22,r17,154d8 <___svfprintf_internal_r+0x1c98>
   15150:	18c00404 	addi	r3,r3,16
   15154:	10800044 	addi	r2,r2,1
   15158:	45400015 	stw	r21,0(r8)
   1515c:	45800115 	stw	r22,4(r8)
   15160:	d8c02015 	stw	r3,128(sp)
   15164:	d8801f15 	stw	r2,124(sp)
   15168:	e0bff60e 	bge	fp,r2,15144 <_gp+0xfffef088>
   1516c:	d9801e04 	addi	r6,sp,120
   15170:	a00b883a 	mov	r5,r20
   15174:	9809883a 	mov	r4,r19
   15178:	0018e040 	call	18e04 <__ssprint_r>
   1517c:	103a971e 	bne	r2,zero,13bdc <_gp+0xfffedb20>
   15180:	d8c02017 	ldw	r3,128(sp)
   15184:	d8801f17 	ldw	r2,124(sp)
   15188:	da000404 	addi	r8,sp,16
   1518c:	003fee06 	br	15148 <_gp+0xfffef08c>
   15190:	d9002e17 	ldw	r4,184(sp)
   15194:	d9402a17 	ldw	r5,168(sp)
   15198:	002d883a 	mov	r22,zero
   1519c:	20800104 	addi	r2,r4,4
   151a0:	25000017 	ldw	r20,0(r4)
   151a4:	283e7d0e 	bge	r5,zero,14b9c <_gp+0xfffeeae0>
   151a8:	003eda06 	br	14d14 <_gp+0xfffeec58>
   151ac:	d9002e17 	ldw	r4,184(sp)
   151b0:	d9402a17 	ldw	r5,168(sp)
   151b4:	002d883a 	mov	r22,zero
   151b8:	20800104 	addi	r2,r4,4
   151bc:	25000017 	ldw	r20,0(r4)
